TN:
SF:/home/david/shared-memory-disruptor/src/disruptor.cc
FN:47,_ZN9Disruptor4SpinEv
FN:149,_Z11GetCallbackRKN4Napi12CallbackInfoEj
FN:167,_ZN11AsyncBufferIhEC2Ev
FN:173,_ZN11AsyncBufferIhE3NewEN4Napi3EnvEPhm
FN:178,_ZN11AsyncBufferIhE3NewEN4Napi3EnvEm
FN:183,_ZN11AsyncBufferIhE7ToValueEN4Napi3EnvE
FN:199,_ZN11AsyncBufferIhE6LengthEv
FN:205,_ZN11AsyncBufferIhEC2EPhm
FN:219,_ZN10AsyncArrayI11AsyncBufferIhEEC2Ev
FN:224,_ZN10AsyncArrayI11AsyncBufferIhEE3NewEN4Napi3EnvE
FN:229,_ZN10AsyncArrayI11AsyncBufferIhEE3SetEjS1_
FN:239,_ZN10AsyncArrayI11AsyncBufferIhEE7ToValueEN4Napi3EnvE
FN:250,_ZN10AsyncArrayI11AsyncBufferIhEE6LengthEv
FN:262,_ZN12AsyncBooleanC2Ev
FN:267,_ZN12AsyncBoolean3NewEN4Napi3EnvEb
FN:272,_ZN12AsyncBoolean7ToValueEN4Napi3EnvE
FN:277,_ZNK12AsyncBooleancvbEv
FN:283,_ZN12AsyncBooleanC2Eb
FN:295,_Z7ToValueRKN4Napi3EnvEm
FN:300,_Z7ToValueRKN4Napi3EnvERK14AsyncUndefined
FN:309,_ZN20DisruptorAsyncWorkerI11AsyncBufferIhEmmEC2EP9DisruptorRKN4Napi8FunctionE
FN:309,_ZN20DisruptorAsyncWorkerI12AsyncBoolean14AsyncUndefinedS1_EC2EP9DisruptorRKN4Napi8FunctionE
FN:309,_ZN20DisruptorAsyncWorkerI10AsyncArrayI11AsyncBufferIhEEm14AsyncUndefinedEC2EP9DisruptorRKN4Napi8FunctionE
FN:309,_ZN20DisruptorAsyncWorkerI10AsyncArrayI11AsyncBufferIhEEmmEC2EP9DisruptorRKN4Napi8FunctionE
FN:321,_ZN20DisruptorAsyncWorkerI11AsyncBufferIhEmmE4OnOKEv
FN:321,_ZN20DisruptorAsyncWorkerI10AsyncArrayI11AsyncBufferIhEEmmE4OnOKEv
FN:321,_ZN20DisruptorAsyncWorkerI10AsyncArrayI11AsyncBufferIhEEm14AsyncUndefinedE4OnOKEv
FN:321,_ZN20DisruptorAsyncWorkerI12AsyncBoolean14AsyncUndefinedS1_E4OnOKEv
FN:354,_ZN7CloseFDclEPi
FN:361,_ZN9Disruptor15ThrowErrnoErrorERKN4Napi12CallbackInfoEPKcb
FN:393,_ZN9DisruptorC2ERKN4Napi12CallbackInfoE
FN:468,_ZN9DisruptorD0Ev
FN:468,_ZN9DisruptorD2Ev
FN:473,_ZN9Disruptor7ReleaseEv
FN:490,_ZN9Disruptor7ReleaseERKN4Napi12CallbackInfoE
FN:499,_ZN9Disruptor14ConsumeNewSyncIN4Napi5ArrayENS1_6BufferEEET_RKNS1_3EnvEbRm
FN:499,_ZN9Disruptor14ConsumeNewSyncI10AsyncArrayI11AsyncBufferIhEES2_EET_RKN4Napi3EnvEbRm
FN:557,_ZN9Disruptor14ConsumeNewSyncERKN4Napi12CallbackInfoE
FN:569,_ZN21ConsumeNewAsyncWorkerC2EP9DisruptorRKN4Napi8FunctionE
FN:580,_ZN21ConsumeNewAsyncWorker7ExecuteEv
FN:587,_ZN21ConsumeNewAsyncWorker5RetryEv
FN:593,_ZN9Disruptor15ConsumeNewAsyncERKN4Napi12CallbackInfoE
FN:598,_ZN9Disruptor10ConsumeNewERKN4Napi12CallbackInfoE
FN:613,_ZN9Disruptor13ConsumeCommitERKN4Napi12CallbackInfoE
FN:618,_ZN9Disruptor13UpdatePendingEmm
FN:624,_ZN9Disruptor13ConsumeCommitEv
FN:640,_ZN9Disruptor16ProduceClaimSyncI11AsyncBufferEET_IhERKN4Napi3EnvEbRmS8_
FN:640,_ZN9Disruptor16ProduceClaimSyncIN4Napi6BufferEEET_IhERKNS1_3EnvEbRmS8_
FN:685,_ZN9Disruptor16ProduceClaimSyncERKN4Napi12CallbackInfoE
FN:696,_ZN23ProduceClaimAsyncWorkerC2EP9DisruptorRKN4Napi8FunctionE
FN:706,_ZN23ProduceClaimAsyncWorker7ExecuteEv
FN:714,_ZN23ProduceClaimAsyncWorker5RetryEv
FN:720,_ZN9Disruptor17ProduceClaimAsyncERKN4Napi12CallbackInfoE
FN:725,_ZN9Disruptor12ProduceClaimERKN4Napi12CallbackInfoE
FN:740,_ZN9Disruptor17ProduceGetBuffersI10AsyncArrayI11AsyncBufferIhEES2_EEvRKN4Napi3EnvEmmRT_
FN:740,_ZN9Disruptor17ProduceGetBuffersIN4Napi5ArrayENS1_6BufferEEEvRKNS1_3EnvEmmRT_
FN:772,_ZN9Disruptor20ProduceClaimManySyncIN4Napi5ArrayENS1_6BufferEEET_RKNS1_3EnvEjbRmS8_
FN:772,_ZN9Disruptor20ProduceClaimManySyncI10AsyncArrayI11AsyncBufferIhEES2_EET_RKN4Napi3EnvEjbRmSA_
FN:814,_ZN9Disruptor20ProduceClaimManySyncERKN4Napi12CallbackInfoE
FN:827,_ZN27ProduceClaimManyAsyncWorkerC2EP9DisruptorRKN4Napi8FunctionEj
FN:841,_ZN27ProduceClaimManyAsyncWorker7ExecuteEv
FN:849,_ZN27ProduceClaimManyAsyncWorker5RetryEv
FN:858,_ZN9Disruptor21ProduceClaimManyAsyncERKN4Napi12CallbackInfoEj
FN:864,_ZN9Disruptor21ProduceClaimManyAsyncERKN4Napi12CallbackInfoE
FN:869,_ZN9Disruptor16ProduceClaimManyERKN4Napi12CallbackInfoE
FN:884,_ZN9Disruptor14ProduceRecoverERKN4Napi12CallbackInfoE
FN:903,_ZN9Disruptor17ProduceCommitSyncI12AsyncBooleanEET_RKN4Napi3EnvEmmb
FN:903,_ZN9Disruptor17ProduceCommitSyncIN4Napi7BooleanEEET_RKNS1_3EnvEmmb
FN:923,_ZN9Disruptor13UpdateSeqNextEmm
FN:929,_ZN9Disruptor10GetSeqNextERKN4Napi12CallbackInfoERmS4_
FN:945,_ZN9Disruptor17ProduceCommitSyncERKN4Napi12CallbackInfoE
FN:956,_ZN24ProduceCommitAsyncWorkerC2EP9DisruptorRKN4Napi8FunctionEmm
FN:968,_ZN24ProduceCommitAsyncWorker7ExecuteEv
FN:975,_ZN24ProduceCommitAsyncWorker5RetryEv
FN:984,_ZN9Disruptor18ProduceCommitAsyncERKN4Napi12CallbackInfoEmmj
FN:993,_ZN9Disruptor18ProduceCommitAsyncERKN4Napi12CallbackInfoE
FN:1000,_ZN9Disruptor13ProduceCommitERKN4Napi12CallbackInfoE
FN:1015,_ZN9Disruptor12GetConsumersERKN4Napi12CallbackInfoE
FN:1020,_ZN9Disruptor9GetCursorERKN4Napi12CallbackInfoE
FN:1025,_ZN9Disruptor7GetNextERKN4Napi12CallbackInfoE
FN:1030,_ZN9Disruptor11GetElementsERKN4Napi12CallbackInfoE
FN:1035,_ZN9Disruptor11GetConsumerERKN4Napi12CallbackInfoE
FN:1040,_ZN9Disruptor21GetPendingSeqConsumerERKN4Napi12CallbackInfoE
FN:1045,_ZN9Disruptor19GetPendingSeqCursorERKN4Napi12CallbackInfoE
FN:1050,_ZN9Disruptor17GetPendingSeqNextERKN4Napi12CallbackInfoE
FN:1055,_ZN9Disruptor20GetPendingSeqNextEndERKN4Napi12CallbackInfoE
FN:1060,_ZN9Disruptor14GetElementSizeERKN4Napi12CallbackInfoE
FN:1065,_ZN9Disruptor10InitializeEN4Napi3EnvENS0_6ObjectE
FN:1101,_Z10InitializeN4Napi3EnvENS_6ObjectE
FN:1106,_Z17__napi_InitializeP10napi_env__P12napi_value__
FN:1106,_register_disruptor
FNDA:11,_ZN9Disruptor20ProduceClaimManySyncERKN4Napi12CallbackInfoE
FNDA:72,_ZN9Disruptor19GetPendingSeqCursorERKN4Napi12CallbackInfoE
FNDA:3208,_ZN9Disruptor7ReleaseERKN4Napi12CallbackInfoE
FNDA:151777,_ZN12AsyncBoolean7ToValueEN4Napi3EnvE
FNDA:197,_ZN9Disruptor11GetConsumerERKN4Napi12CallbackInfoE
FNDA:598545,_ZN9Disruptor21GetPendingSeqConsumerERKN4Napi12CallbackInfoE
FNDA:64,_ZN9Disruptor14GetElementSizeERKN4Napi12CallbackInfoE
FNDA:1556,_ZN9Disruptor11GetElementsERKN4Napi12CallbackInfoE
FNDA:6520,_ZN9Disruptor7ReleaseEv
FNDA:213545,_ZN11AsyncBufferIhE3NewEN4Napi3EnvEPhm
FNDA:1169190,_ZN24ProduceCommitAsyncWorkerC2EP9DisruptorRKN4Napi8FunctionEmm
FNDA:3312,_ZN9DisruptorD2Ev
FNDA:207964,_ZN9Disruptor15ConsumeNewAsyncERKN4Napi12CallbackInfoE
FNDA:1169190,_ZNK12AsyncBooleancvbEv
FNDA:365148,_Z11GetCallbackRKN4Napi12CallbackInfoEj
FNDA:150877,_ZN27ProduceClaimManyAsyncWorker7ExecuteEv
FNDA:35,_ZN9Disruptor20ProduceClaimManySyncIN4Napi5ArrayENS1_6BufferEEET_RKNS1_3EnvEjbRmS8_
FNDA:970340,_ZN21ConsumeNewAsyncWorkerC2EP9DisruptorRKN4Napi8FunctionE
FNDA:76,_ZN9Disruptor14ProduceRecoverERKN4Napi12CallbackInfoE
FNDA:762376,_ZN21ConsumeNewAsyncWorker5RetryEv
FNDA:864114,_ZN9Disruptor13UpdateSeqNextEmm
FNDA:197,_ZN9Disruptor7GetNextERKN4Napi12CallbackInfoE
FNDA:11,_ZN9Disruptor21ProduceClaimManyAsyncERKN4Napi12CallbackInfoE
FNDA:1121220,_ZN10AsyncArrayI11AsyncBufferIhEE3NewEN4Napi3EnvE
FNDA:401102,_ZN11AsyncBufferIhEC2Ev
FNDA:520257,_ZN9Disruptor17ProduceCommitSyncIN4Napi7BooleanEEET_RKNS1_3EnvEmmb
FNDA:187557,_ZN11AsyncBufferIhE3NewEN4Napi3EnvEm
FNDA:197,_ZN9Disruptor9GetCursorERKN4Napi12CallbackInfoE
FNDA:150859,_ZN27ProduceClaimManyAsyncWorker5RetryEv
FNDA:207982,_ZN10AsyncArrayI11AsyncBufferIhEE7ToValueEN4Napi3EnvE
FNDA:1169190,_ZN12AsyncBooleanC2Eb
FNDA:187545,_ZN23ProduceClaimAsyncWorker5RetryEv
FNDA:150877,_ZN20DisruptorAsyncWorkerI10AsyncArrayI11AsyncBufferIhEEmmEC2EP9DisruptorRKN4Napi8FunctionE
FNDA:1169190,_ZN20DisruptorAsyncWorkerI12AsyncBoolean14AsyncUndefinedS1_E4OnOKEv
FNDA:520248,_ZN9Disruptor16ProduceClaimSyncIN4Napi6BufferEEET_IhERKNS1_3EnvEbRmS8_
FNDA:519447,_ZN9Disruptor13ProduceCommitERKN4Napi12CallbackInfoE
FNDA:1121220,_ZN10AsyncArrayI11AsyncBufferIhEE6LengthEv
FNDA:807,_ZN9Disruptor16ProduceClaimSyncERKN4Napi12CallbackInfoE
FNDA:150877,_ZN9Disruptor20ProduceClaimManySyncI10AsyncArrayI11AsyncBufferIhEES2_EET_RKN4Napi3EnvEjbRmSA_
FNDA:505,_ZN9Disruptor10InitializeEN4Napi3EnvENS0_6ObjectE
FNDA:208168,_ZN10AsyncArrayI11AsyncBufferIhEE3SetEjS1_
FNDA:520319,_ZN9Disruptor17GetPendingSeqNextERKN4Napi12CallbackInfoE
FNDA:970340,_ZN20DisruptorAsyncWorkerI10AsyncArrayI11AsyncBufferIhEEm14AsyncUndefinedEC2EP9DisruptorRKN4Napi8FunctionE
FNDA:970340,_ZN21ConsumeNewAsyncWorker7ExecuteEv
FNDA:970340,_ZN20DisruptorAsyncWorkerI10AsyncArrayI11AsyncBufferIhEEm14AsyncUndefinedE4OnOKEv
FNDA:12,_ZN9Disruptor12GetConsumersERKN4Napi12CallbackInfoE
FNDA:1169190,_ZN12AsyncBooleanC2Ev
FNDA:970340,_ZN9Disruptor14ConsumeNewSyncI10AsyncArrayI11AsyncBufferIhEES2_EET_RKN4Napi3EnvEbRm
FNDA:2242430,_ZN10AsyncArrayI11AsyncBufferIhEEC2Ev
FNDA:520319,_ZN9Disruptor20GetPendingSeqNextEndERKN4Napi12CallbackInfoE
FNDA:151777,_ZN9Disruptor18ProduceCommitAsyncERKN4Napi12CallbackInfoEmmj
FNDA:192934,_ZN23ProduceClaimAsyncWorkerC2EP9DisruptorRKN4Napi8FunctionE
FNDA:598473,_ZN9Disruptor14ConsumeNewSyncIN4Napi5ArrayENS1_6BufferEEET_RKNS1_3EnvEbRm
FNDA:218778,_Z7ToValueRKN4Napi3EnvEm
FNDA:213557,_ZN11AsyncBufferIhE7ToValueEN4Napi3EnvE
FNDA:1169190,_ZN9Disruptor17ProduceCommitSyncI12AsyncBooleanEET_RKN4Napi3EnvEmmb
FNDA:45,_ZN9Disruptor17ProduceGetBuffersIN4Napi5ArrayENS1_6BufferEEEvRKNS1_3EnvEmmRT_
FNDA:192934,_ZN20DisruptorAsyncWorkerI11AsyncBufferIhEmmEC2EP9DisruptorRKN4Napi8FunctionE
FNDA:1169190,_ZN12AsyncBoolean3NewEN4Napi3EnvEb
FNDA:150877,_ZN27ProduceClaimManyAsyncWorkerC2EP9DisruptorRKN4Napi8FunctionEj
FNDA:505,_Z17__napi_InitializeP10napi_env__P12napi_value__
FNDA:3712,_ZN7CloseFDclEPi
FNDA:150877,_ZN20DisruptorAsyncWorkerI10AsyncArrayI11AsyncBufferIhEEmmE4OnOKEv
FNDA:9,_ZN9Disruptor17ProduceGetBuffersI10AsyncArrayI11AsyncBufferIhEES2_EEvRKN4Napi3EnvEmmRT_
FNDA:12,_ZN9Disruptor14ConsumeNewSyncERKN4Napi12CallbackInfoE
FNDA:192934,_ZN20DisruptorAsyncWorkerI11AsyncBufferIhEmmE4OnOKEv
FNDA:1017410,_ZN24ProduceCommitAsyncWorker5RetryEv
FNDA:519441,_ZN9Disruptor12ProduceClaimERKN4Napi12CallbackInfoE
FNDA:3312,_ZN9DisruptorD0Ev
FNDA:192934,_ZN11AsyncBufferIhE6LengthEv
FNDA:4,_ZN9Disruptor15ThrowErrnoErrorERKN4Napi12CallbackInfoEPKcb
FNDA:2167290,_ZN9Disruptor13ConsumeCommitEv
FNDA:401102,_ZN11AsyncBufferIhEC2EPhm
FNDA:511518,_Z7ToValueRKN4Napi3EnvERK14AsyncUndefined
FNDA:5389,_ZN9Disruptor17ProduceClaimAsyncERKN4Napi12CallbackInfoE
FNDA:18,_ZN9Disruptor21ProduceClaimManyAsyncERKN4Napi12CallbackInfoEj
FNDA:810,_ZN9Disruptor18ProduceCommitAsyncERKN4Napi12CallbackInfoE
FNDA:810,_ZN9Disruptor17ProduceCommitSyncERKN4Napi12CallbackInfoE
FNDA:598477,_ZN9Disruptor13UpdatePendingEmm
FNDA:2483340,_ZN9Disruptor4SpinEv
FNDA:1169190,_ZN20DisruptorAsyncWorkerI12AsyncBoolean14AsyncUndefinedS1_EC2EP9DisruptorRKN4Napi8FunctionE
FNDA:192934,_ZN9Disruptor16ProduceClaimSyncI11AsyncBufferEET_IhERKN4Napi3EnvEbRmS8_
FNDA:253,_register_disruptor
FNDA:192934,_ZN23ProduceClaimAsyncWorker7ExecuteEv
FNDA:1169190,_ZN24ProduceCommitAsyncWorker7ExecuteEv
FNDA:521067,_ZN9Disruptor10GetSeqNextERKN4Napi12CallbackInfoERmS4_
FNDA:3716,_ZN9DisruptorC2ERKN4Napi12CallbackInfoE
FNDA:505,_Z10InitializeN4Napi3EnvENS_6ObjectE
FNDA:24,_ZN9Disruptor16ProduceClaimManyERKN4Napi12CallbackInfoE
FNDA:598461,_ZN9Disruptor10ConsumeNewERKN4Napi12CallbackInfoE
FNDA:598476,_ZN9Disruptor13ConsumeCommitERKN4Napi12CallbackInfoE
FNF:91
FNH:91
DA:47,2483340
DA:49,2483340
DA:149,365148
DA:151,365148
DA:153,365148
DA:154,365148
DA:156,365148
DA:167,401102
DA:169,401102
DA:171,401102
DA:173,213545
DA:175,213545
DA:178,187557
DA:180,187557
DA:183,213557
DA:185,213557
DA:187,213557
DA:189,213545
DA:193,12
DA:196,213557
DA:199,192934
DA:201,192934
DA:205,401102
DA:207,401102
DA:209,401102
DA:219,2242430
DA:220,2242430
DA:222,2242430
DA:224,1121220
DA:226,1121220
DA:229,208168
DA:231,208168
DA:233,208168
DA:236,208168
DA:237,208168
DA:239,207982
DA:241,207982
DA:242,207982
DA:243,416150
DA:245,208168
DA:247,207982
DA:250,1121220
DA:252,1121220
DA:262,1169190
DA:263,1169190
DA:265,1169190
DA:267,1169190
DA:269,1169190
DA:272,151777
DA:274,151777
DA:277,1169190
DA:279,1169190
DA:283,1169190
DA:284,1169190
DA:286,1169190
DA:295,218778
DA:297,218778
DA:300,511518
DA:302,511518
DA:309,2483341
DA:314,2483341
DA:316,2483341
DA:321,2483341
DA:323,2483341
DA:325,2118190
DA:328,365148
DA:330,1825740
DA:331,365148
DA:334,365148
DA:336,365148
DA:337,730296
DA:354,3712
DA:356,3712
DA:357,3712
DA:358,3712
DA:361,4
DA:368,4
DA:370,4
DA:371,4
DA:373,4
DA:377,4
DA:378,4
DA:385,4
DA:389,4
DA:390,8
DA:393,3716
DA:395,3720
DA:398,3716
DA:399,3716
DA:400,3716
DA:401,3716
DA:402,3716
DA:403,3716
DA:404,3716
DA:409,3716
DA:410,3716
DA:414,3716
DA:416,240
DA:417,240
DA:422,3716
DA:424,4
DA:427,3712
DA:433,3712
DA:434,3712
DA:438,3712
DA:444,3712
DA:447,3712
DA:449,3712
DA:455,3712
DA:456,3712
DA:457,3712
DA:458,3712
DA:459,3712
DA:461,3712
DA:462,3712
DA:464,3712
DA:465,3712
DA:466,3712
DA:468,6624
DA:470,3312
DA:471,6624
DA:473,6520
DA:475,6520
DA:477,3712
DA:479,3712
DA:484,3712
DA:487,6520
DA:490,3208
DA:492,3208
DA:496,3208
DA:499,1568813
DA:506,1568813
DA:508,970336
DA:510,1568813
DA:511,1568813
DA:512,1568813
DA:513,1568813
DA:515,1568813
DA:517,804993
DA:519,597384
DA:521,597384
DA:522,597384
DA:524,597384
DA:525,597384
DA:526,597384
DA:529,971429
DA:531,1442
DA:533,1093
DA:535,1093
DA:536,1093
DA:538,1093
DA:540,594
DA:543,594
DA:546,1093
DA:547,1093
DA:548,1093
DA:553,970336
DA:554,970336
DA:557,12
DA:560,12
DA:569,970340
DA:570,970340
DA:574,970340
DA:576,970340
DA:577,970340
DA:580,970340
DA:583,970340
DA:584,970340
DA:585,970340
DA:587,762376
DA:589,762376
DA:590,762376
DA:593,207964
DA:595,207964
DA:596,207964
DA:598,598461
DA:602,598461
DA:604,598461
DA:606,390509
DA:609,207952
DA:610,415904
DA:613,598476
DA:615,598476
DA:618,598477
DA:620,598477
DA:621,598477
DA:622,598477
DA:624,2167290
DA:626,2167290
DA:628,2167290
DA:630,598476
DA:633,598476
DA:636,2167290
DA:640,713182
DA:645,192143
DA:647,713182
DA:649,713182
DA:651,3263863
DA:653,2738257
DA:655,2738257
DA:657,187576
DA:658,187576
DA:662,1238790
DA:663,525606
DA:665,521039
DA:667,521039
DA:668,521039
DA:670,521039
DA:671,521039
DA:672,521039
DA:674,521039
DA:679,192143
DA:680,192143
DA:681,192143
DA:682,192143
DA:685,807
DA:688,807
DA:689,807
DA:696,192934
DA:697,192934
DA:699,192934
DA:701,192934
DA:702,192934
DA:703,192934
DA:706,192934
DA:709,192934
DA:710,192934
DA:711,192934
DA:712,192934
DA:714,187545
DA:716,187545
DA:717,187545
DA:720,5389
DA:722,5389
DA:723,5389
DA:725,519441
DA:729,519441
DA:730,519441
DA:732,514859
DA:735,4582
DA:736,9164
DA:740,54
DA:745,54
DA:746,54
DA:748,54
DA:750,4
DA:752,4
DA:753,4
DA:755,4
DA:758,4
DA:762,50
DA:764,50
DA:765,50
DA:768,54
DA:769,54
DA:772,150912
DA:778,150878
DA:780,150912
DA:781,150912
DA:783,150912
DA:785,150946
DA:787,150912
DA:789,150912
DA:791,150878
DA:792,150878
DA:796,150946
DA:797,34
DA:799,43
DA:800,34
DA:801,34
DA:802,34
DA:803,34
DA:808,150878
DA:809,150878
DA:810,150878
DA:811,150878
DA:814,11
DA:817,11
DA:818,11
DA:827,150877
DA:829,150877
DA:834,150877
DA:836,150877
DA:837,150877
DA:838,150877
DA:841,150877
DA:844,301754
DA:845,301754
DA:846,150877
DA:847,150877
DA:849,150859
DA:851,150859
DA:852,150859
DA:858,18
DA:861,18
DA:862,18
DA:864,11
DA:866,11
DA:867,11
DA:869,24
DA:871,24
DA:874,24
DA:875,24
DA:877,17
DA:880,7
DA:881,14
DA:884,76
DA:886,76
DA:887,76
DA:889,76
DA:891,140
DA:892,116
DA:893,40
DA:895,20
DA:896,40
DA:899,76
DA:903,1689447
DA:908,1689447
DA:910,1168384
DA:912,1689431
DA:914,521055
DA:920,1168390
DA:923,864114
DA:925,864114
DA:926,864114
DA:927,864114
DA:929,521067
DA:933,521067
DA:935,12
DA:936,12
DA:937,12
DA:940,521055
DA:941,521055
DA:942,521055
DA:945,810
DA:948,810
DA:949,810
DA:956,1169190
DA:959,1169190
DA:963,1169190
DA:965,1169190
DA:968,1169190
DA:971,1169190
DA:972,1169190
DA:973,1169190
DA:975,1017410
DA:977,1017410
DA:978,1017410
DA:984,151777
DA:990,151777
DA:991,151777
DA:993,810
DA:996,810
DA:997,810
DA:998,810
DA:1000,519447
DA:1003,519447
DA:1005,519447
DA:1006,519447
DA:1008,368480
DA:1011,150967
DA:1012,301934
DA:1015,12
DA:1017,12
DA:1020,197
DA:1022,197
DA:1025,197
DA:1027,197
DA:1030,1556
DA:1032,1556
DA:1035,197
DA:1037,197
DA:1040,598545
DA:1042,598545
DA:1045,72
DA:1047,72
DA:1050,520319
DA:1052,520319
DA:1055,520319
DA:1057,520319
DA:1060,64
DA:1062,64
DA:1065,505
DA:1067,505
DA:1069,505
DA:1070,505
DA:1071,505
DA:1072,505
DA:1073,505
DA:1074,505
DA:1075,505
DA:1076,505
DA:1077,505
DA:1078,505
DA:1079,505
DA:1080,505
DA:1081,505
DA:1082,505
DA:1083,505
DA:1086,505
DA:1087,505
DA:1088,505
DA:1089,505
DA:1090,505
DA:1091,505
DA:1092,505
DA:1093,505
DA:1094,505
DA:1095,505
DA:1096,505
DA:1098,505
DA:1101,505
DA:1103,505
DA:1106,758
LF:414
LH:414
end_of_record
TN:
SF:lib/disruptor.js
FN:4,check
FN:14,(anonymous_1)
FN:18,(anonymous_2)
FN:19,(anonymous_3)
FN:24,(anonymous_4)
FN:25,(anonymous_5)
FN:30,(anonymous_6)
FN:31,(anonymous_7)
FN:36,(anonymous_8)
FN:44,(anonymous_9)
FN:51,(anonymous_10)
FN:61,(anonymous_11)
FN:69,(anonymous_12)
FN:79,(anonymous_13)
FN:87,(anonymous_14)
FN:97,(anonymous_15)
FN:107,(anonymous_16)
FNDA:467556,(anonymous_8)
FNDA:424938,(anonymous_2)
FNDA:467553,(anonymous_4)
FNDA:519447,(anonymous_15)
FNDA:11,(anonymous_7)
FNDA:519441,(anonymous_12)
FNDA:1637373,check
FNDA:3716,(anonymous_1)
FNDA:598461,(anonymous_9)
FNDA:519447,(anonymous_16)
FNDA:11,(anonymous_6)
FNDA:598461,(anonymous_10)
FNDA:467553,(anonymous_5)
FNDA:24,(anonymous_14)
FNDA:24,(anonymous_13)
FNDA:519441,(anonymous_11)
FNDA:424938,(anonymous_3)
FNF:17
FNH:17
BRDA:6,0,0,1273865
BRDA:6,0,1,363508
BRDA:37,1,0,2
BRDA:37,1,1,467554
BRDA:53,2,0,173523
BRDA:53,2,1,424938
BRDA:71,3,0,51888
BRDA:71,3,1,467553
BRDA:89,4,0,13
BRDA:89,4,1,11
BRDA:99,5,0,8
BRDA:99,5,1,519439
BRDA:109,6,0,8
BRDA:109,6,1,519439
BRDA:111,7,0,6
BRDA:111,7,1,2
BRDA:119,8,0,51885
BRDA:119,8,1,467554
BRF:18
BRH:18
DA:1,505
DA:2,505
DA:6,1637373
DA:8,1273865
DA:16,3716
DA:18,3712
DA:19,424938
DA:20,424938
DA:24,3712
DA:25,467553
DA:26,467553
DA:30,3712
DA:31,11
DA:32,11
DA:36,3712
DA:37,467556
DA:38,2
DA:40,467554
DA:46,598461
DA:53,598461
DA:55,173523
DA:58,424938
DA:63,519441
DA:71,519441
DA:73,51888
DA:76,467553
DA:81,24
DA:89,24
DA:91,13
DA:94,11
DA:99,519447
DA:101,8
DA:104,519439
DA:109,519447
DA:111,8
DA:113,6
DA:116,2
DA:119,519439
DA:121,51885
DA:124,467554
DA:128,505
LF:41
LH:41
end_of_record
