TN:
SF:/home/david/shared-memory-disruptor/node_modules/node-addon-api/napi-inl.h
FN:54,_ZN4Napi7details12WrapCallbackIZNS_10ObjectWrapI9DisruptorE33InstanceVoidMethodCallbackWrapperEP10napi_env__P20napi_callback_info__EUlvE_EEP12napi_value__T_
FN:54,_ZN4Napi7details12WrapCallbackIZNS_11AsyncWorker14OnWorkCompleteEP10napi_env__11napi_statusPvEUlvE_EEP12napi_value__T_
FN:54,_ZN4Napi7details12WrapCallbackIZNS_10ObjectWrapI9DisruptorE26ConstructorCallbackWrapperEP10napi_env__P20napi_callback_info__EUlvE_EEP12napi_value__T_
FN:54,_ZN4Napi7details12WrapCallbackIZNS_10ObjectWrapI9DisruptorE29InstanceMethodCallbackWrapperEP10napi_env__P20napi_callback_info__EUlvE_EEP12napi_value__T_
FN:54,_ZN4Napi7details12WrapCallbackIZNS_10ObjectWrapI9DisruptorE29InstanceGetterCallbackWrapperEP10napi_env__P20napi_callback_info__EUlvE_EEP12napi_value__T_
FN:54,_ZN4Napi7details12WrapCallbackIZNS_10ObjectWrapI9DisruptorE29InstanceSetterCallbackWrapperEP10napi_env__P20napi_callback_info__EUlvE_EEP12napi_value__T_
FN:54,_ZN4Napi7details12WrapCallbackIZNS_14RegisterModuleEP10napi_env__P12napi_value__S5_PFvNS_3EnvENS_6ObjectES7_EEUlvE_EES5_T_
FN:54,_ZN4Napi7details12WrapCallbackIZNS0_12CallbackDataIPFvRKNS_12CallbackInfoEEvE7WrapperEP10napi_env__P20napi_callback_info__EUlvE_EEP12napi_value__T_
FN:89,_ZN4Napi7details12CallbackDataIPFvRKNS_12CallbackInfoEEvE7WrapperEP10napi_env__P20napi_callback_info__
FN:90,_ZZN4Napi7details12CallbackDataIPFvRKNS_12CallbackInfoEEvE7WrapperEP10napi_env__P20napi_callback_info__ENKUlvE_clEv
FN:169,_ZN4Napi14RegisterModuleEP10napi_env__P12napi_value__S3_PFvNS_3EnvENS_6ObjectES5_E
FN:173,_ZZN4Napi14RegisterModuleEP10napi_env__P12napi_value__S3_PFvNS_3EnvENS_6ObjectES5_EENKUlvE_clEv
FN:185,_ZN4Napi3EnvC2EP10napi_env__
FN:188,_ZNK4Napi3EnvcvP10napi_env__Ev
FN:199,_ZNK4Napi3Env9UndefinedEv
FN:206,_ZNK4Napi3Env4NullEv
FN:234,_ZN4Napi5ValueC2Ev
FN:237,_ZN4Napi5ValueC2EP10napi_env__P12napi_value__
FN:240,_ZNK4Napi5ValuecvP12napi_value__Ev
FN:259,_ZNK4Napi5Value3EnvEv
FN:267,_ZNK4Napi5Value4TypeEv
FN:339,_ZNK4Napi5Value10IsFunctionEv
FN:355,_ZNK4Napi5Value2AsINS_7BooleanEEET_v
FN:355,_ZNK4Napi5Value2AsINS_6ObjectEEET_v
FN:355,_ZNK4Napi5Value2AsINS_6NumberEEET_v
FN:355,_ZNK4Napi5Value2AsINS_6StringEEET_v
FN:355,_ZNK4Napi5Value2AsINS_8FunctionEEET_v
FN:391,_ZN4Napi7Boolean3NewEP10napi_env__b
FN:401,_ZN4Napi7BooleanC2EP10napi_env__P12napi_value__
FN:404,_ZNK4Napi7BooleancvbEv
FN:408,_ZNK4Napi7Boolean5ValueEv
FN:419,_ZN4Napi6Number3NewEP10napi_env__d
FN:429,_ZN4Napi6NumberC2EP10napi_env__P12napi_value__
FN:436,_ZNK4Napi6NumbercvjEv
FN:459,_ZNK4Napi6Number11Uint32ValueEv
FN:466,_ZNK4Napi6Number10Int64ValueEv
FN:491,_ZN4Napi4NameC2EP10napi_env__P12napi_value__
FN:537,_ZN4Napi6StringC2EP10napi_env__P12napi_value__
FN:540,_ZNK4Napi6StringcvNSt7__cxx1112basic_stringIcSt11char_traitsIcESaIcEEEB5cxx11Ev
FN:548,_ZNK4Napi6String9Utf8ValueB5cxx11Ev
FN:617,_ZN4Napi6Object14PropertyLValueIjEaSINS_5ValueEEERS2_T_
FN:623,_ZN4Napi6Object14PropertyLValueIjEC2ES0_j
FN:626,_ZN4Napi6Object3NewEP10napi_env__
FN:633,_ZN4Napi6ObjectC2Ev
FN:636,_ZN4Napi6ObjectC2EP10napi_env__P12napi_value__
FN:647,_ZN4Napi6ObjectixEj
FN:702,_ZNK4Napi6Object3GetEPKc
FN:723,_ZN4Napi6Object3SetEPKcNS_5ValueE
FN:784,_ZN4Napi6Object3SetEjNS_5ValueE
FN:912,_ZN4Napi5Array3NewEP10napi_env__
FN:929,_ZN4Napi5ArrayC2EP10napi_env__P12napi_value__
FN:932,_ZNK4Napi5Array6LengthEv
FN:1201,_ZN4Napi8Function3NewIPFvRKNS_12CallbackInfoEEEES0_P10napi_env__T_PKcPv
FN:1228,_ZN4Napi8FunctionC2EP10napi_env__P12napi_value__
FN:1263,_ZNK4Napi8Function12MakeCallbackEP12napi_value__RKSt16initializer_listIS2_E
FN:1273,_ZNK4Napi8Function12MakeCallbackEP12napi_value__mPKS2_
FN:1303,_ZN4Napi6BufferIhE3NewEP10napi_env__m
FN:1312,_ZN4Napi6BufferImE3NewEP10napi_env__Pmm
FN:1312,_ZN4Napi6BufferIhE3NewEP10napi_env__Phm
FN:1377,_ZN4Napi6BufferIhEC2Ev
FN:1386,_ZN4Napi6BufferImEC2EP10napi_env__P12napi_value__mPm
FN:1386,_ZN4Napi6BufferIhEC2EP10napi_env__P12napi_value__mPh
FN:1391,_ZNK4Napi6BufferIhE6LengthEv
FN:1403,_ZNK4Napi6BufferIhE10EnsureInfoEv
FN:1421,_ZN4Napi5Error3NewEP10napi_env__
FN:1479,_ZN4Napi5Error3NewEP10napi_env__RKNSt7__cxx1112basic_stringIcSt11char_traitsIcESaIcEEE
FN:1483,_ZN4Napi5Error5FatalEPKcS2_
FN:1490,_ZN4Napi5ErrorC2EP10napi_env__P12napi_value__
FN:1526,_ZNK4Napi5Error7MessageB5cxx11Ev
FN:1543,_ZNK4Napi5Error26ThrowAsJavaScriptExceptionEv
FN:1553,_ZNK4Napi5Error4whatEv
FN:1560,_ZN4Napi5Error3NewIS0_EET_P10napi_env__PKcmPF11napi_statusS4_P12napi_value__S9_PS9_E
FN:1608,_ZN4Napi9ReferenceINS_6ObjectEE3NewERKS1_j
FN:1608,_ZN4Napi9ReferenceINS_8FunctionEE3NewERKS1_j
FN:1625,_ZN4Napi9ReferenceINS_6ObjectEEC2Ev
FN:1629,_ZN4Napi9ReferenceINS_8FunctionEEC2EP10napi_env__P10napi_ref__
FN:1629,_ZN4Napi9ReferenceINS_6ObjectEEC2EP10napi_env__P10napi_ref__
FN:1634,_ZN4Napi9ReferenceINS_8FunctionEED2Ev
FN:1634,_ZN4Napi9ReferenceINS_6ObjectEED2Ev
FN:1645,_ZN4Napi9ReferenceINS_6ObjectEEC2EOS2_
FN:1645,_ZN4Napi9ReferenceINS_8FunctionEEC2EOS2_
FN:1653,_ZN4Napi9ReferenceINS_6ObjectEEaSEOS2_
FN:1700,_ZNK4Napi9ReferenceINS_6ObjectEE7IsEmptyEv
FN:1705,_ZNK4Napi9ReferenceINS_6ObjectEE5ValueEv
FN:1705,_ZNK4Napi9ReferenceINS_8FunctionEE5ValueEv
FN:1733,_ZN4Napi9ReferenceINS_6ObjectEE5ResetEv
FN:1776,_ZN4Napi10PersistentENS_6ObjectE
FN:1780,_ZN4Napi10PersistentENS_8FunctionE
FN:1791,_ZN4Napi15ObjectReferenceC2EP10napi_env__P10napi_ref__
FN:1794,_ZN4Napi15ObjectReferenceC2EONS_9ReferenceINS_6ObjectEEE
FN:1816,_ZNK4Napi15ObjectReference3GetEPKc
FN:1922,_ZN4Napi17FunctionReferenceC2EONS_9ReferenceINS_8FunctionEEE
FN:1968,_ZNK4Napi17FunctionReference12MakeCallbackEP12napi_value__RKSt16initializer_listIS2_E
FN:1994,_ZN4Napi12CallbackInfoC2EP10napi_env__P20napi_callback_info__
FN:2012,_ZN4Napi12CallbackInfoD2Ev
FN:2025,_ZNK4Napi12CallbackInfo3EnvEv
FN:2029,_ZNK4Napi12CallbackInfo6LengthEv
FN:2033,_ZNK4Napi12CallbackInfoixEm
FN:2037,_ZNK4Napi12CallbackInfo4ThisEv
FN:2044,_ZNK4Napi12CallbackInfo4DataEv
FN:2048,_ZN4Napi12CallbackInfo7SetDataEPv
FN:2287,_ZN4Napi10ObjectWrapI9DisruptorEC2ERKNS_12CallbackInfoE
FN:2301,_ZN4Napi10ObjectWrapI9DisruptorE6UnwrapENS_6ObjectE
FN:2309,_ZN4Napi10ObjectWrapI9DisruptorE11DefineClassENS_3EnvEPKcRKSt16initializer_listINS_23ClassPropertyDescriptorIS1_EEEPv
FN:2393,_ZN4Napi10ObjectWrapI9DisruptorE14InstanceMethodEPKcMS1_FvRKNS_12CallbackInfoEE24napi_property_attributesPv
FN:2411,_ZN4Napi10ObjectWrapI9DisruptorE14InstanceMethodEPKcMS1_FNS_5ValueERKNS_12CallbackInfoEE24napi_property_attributesPv
FN:2428,_ZN4Napi10ObjectWrapI9DisruptorE16InstanceAccessorEPKcMS1_FNS_5ValueERKNS_12CallbackInfoEEMS1_FvS8_RKS5_E24napi_property_attributesPv
FN:2470,_ZN4Napi10ObjectWrapI9DisruptorE26ConstructorCallbackWrapperEP10napi_env__P20napi_callback_info__
FN:2483,_ZZN4Napi10ObjectWrapI9DisruptorE26ConstructorCallbackWrapperEP10napi_env__P20napi_callback_info__ENKUlvE_clEv
FN:2547,_ZN4Napi10ObjectWrapI9DisruptorE33InstanceVoidMethodCallbackWrapperEP10napi_env__P20napi_callback_info__
FN:2550,_ZZN4Napi10ObjectWrapI9DisruptorE33InstanceVoidMethodCallbackWrapperEP10napi_env__P20napi_callback_info__ENKUlvE_clEv
FN:2563,_ZN4Napi10ObjectWrapI9DisruptorE29InstanceMethodCallbackWrapperEP10napi_env__P20napi_callback_info__
FN:2566,_ZZN4Napi10ObjectWrapI9DisruptorE29InstanceMethodCallbackWrapperEP10napi_env__P20napi_callback_info__ENKUlvE_clEv
FN:2578,_ZN4Napi10ObjectWrapI9DisruptorE29InstanceGetterCallbackWrapperEP10napi_env__P20napi_callback_info__
FN:2581,_ZZN4Napi10ObjectWrapI9DisruptorE29InstanceGetterCallbackWrapperEP10napi_env__P20napi_callback_info__ENKUlvE_clEv
FN:2593,_ZN4Napi10ObjectWrapI9DisruptorE29InstanceSetterCallbackWrapperEP10napi_env__P20napi_callback_info__
FN:2596,_ZZN4Napi10ObjectWrapI9DisruptorE29InstanceSetterCallbackWrapperEP10napi_env__P20napi_callback_info__ENKUlvE_clEv
FN:2609,_ZN4Napi10ObjectWrapI9DisruptorE16FinalizeCallbackEP10napi_env__PvS5_
FN:2622,_ZN4Napi11HandleScopeC2ENS_3EnvE
FN:2627,_ZN4Napi11HandleScopeD2Ev
FN:2647,_ZN4Napi20EscapableHandleScopeC2ENS_3EnvE
FN:2652,_ZN4Napi20EscapableHandleScopeD2Ev
FN:2664,_ZN4Napi20EscapableHandleScope6EscapeEP12napi_value__
FN:2675,_ZN4Napi11AsyncWorkerC2ERKNS_8FunctionE
FN:2679,_ZN4Napi11AsyncWorkerC2ERKNS_6ObjectERKNS_8FunctionE
FN:2688,_ZN4Napi11AsyncWorkerD0Ev
FN:2688,_ZN4Napi11AsyncWorkerD2Ev
FN:2720,_ZNK4Napi11AsyncWorker3EnvEv
FN:2724,_ZN4Napi11AsyncWorker5QueueEv
FN:2734,_ZN4Napi11AsyncWorker8ReceiverEv
FN:2738,_ZN4Napi11AsyncWorker8CallbackEv
FN:2742,_ZN4Napi11AsyncWorker4OnOKEv
FN:2746,_ZN4Napi11AsyncWorker7OnErrorERKNS_5ErrorE
FN:2750,_ZN4Napi11AsyncWorker8SetErrorERKNSt7__cxx1112basic_stringIcSt11char_traitsIcESaIcEEE
FN:2754,_ZN4Napi11AsyncWorker9OnExecuteEP10napi_env__Pv
FN:2767,_ZN4Napi11AsyncWorker14OnWorkCompleteEP10napi_env__11napi_statusPv
FN:2772,_ZZN4Napi11AsyncWorker14OnWorkCompleteEP10napi_env__11napi_statusPvENKUlvE_clEv
FNDA:3395,_ZN4Napi7details12WrapCallbackIZNS_10ObjectWrapI9DisruptorE26ConstructorCallbackWrapperEP10napi_env__P20napi_callback_info__EUlvE_EEP12napi_value__T_
FNDA:0,_ZN4Napi7details12WrapCallbackIZNS_10ObjectWrapI9DisruptorE29InstanceSetterCallbackWrapperEP10napi_env__P20napi_callback_info__EUlvE_EEP12napi_value__T_
FNDA:653381,_ZN4Napi7details12WrapCallbackIZNS_10ObjectWrapI9DisruptorE29InstanceGetterCallbackWrapperEP10napi_env__P20napi_callback_info__EUlvE_EEP12napi_value__T_
FNDA:4782,_ZN4Napi7details12WrapCallbackIZNS_10ObjectWrapI9DisruptorE33InstanceVoidMethodCallbackWrapperEP10napi_env__P20napi_callback_info__EUlvE_EEP12napi_value__T_
FNDA:1868196,_ZN4Napi7details12WrapCallbackIZNS_10ObjectWrapI9DisruptorE29InstanceMethodCallbackWrapperEP10napi_env__P20napi_callback_info__EUlvE_EEP12napi_value__T_
FNDA:1,_ZN4Napi7details12WrapCallbackIZNS0_12CallbackDataIPFvRKNS_12CallbackInfoEEvE7WrapperEP10napi_env__P20napi_callback_info__EUlvE_EEP12napi_value__T_
FNDA:3397350,_ZN4Napi7details12WrapCallbackIZNS_11AsyncWorker14OnWorkCompleteEP10napi_env__11napi_statusPvEUlvE_EEP12napi_value__T_
FNDA:253,_ZN4Napi7details12WrapCallbackIZNS_14RegisterModuleEP10napi_env__P12napi_value__S5_PFvNS_3EnvENS_6ObjectES7_EEUlvE_EES5_T_
FNDA:1,_ZN4Napi7details12CallbackDataIPFvRKNS_12CallbackInfoEEvE7WrapperEP10napi_env__P20napi_callback_info__
FNDA:1,_ZZN4Napi7details12CallbackDataIPFvRKNS_12CallbackInfoEEvE7WrapperEP10napi_env__P20napi_callback_info__ENKUlvE_clEv
FNDA:253,_ZN4Napi14RegisterModuleEP10napi_env__P12napi_value__S3_PFvNS_3EnvENS_6ObjectES5_E
FNDA:253,_ZZN4Napi14RegisterModuleEP10napi_env__P12napi_value__S3_PFvNS_3EnvENS_6ObjectES5_EENKUlvE_clEv
FNDA:29765634,_ZN4Napi3EnvC2EP10napi_env__
FNDA:29291130,_ZNK4Napi3EnvcvP10napi_env__Ev
FNDA:686546,_ZNK4Napi3Env9UndefinedEv
FNDA:321169,_ZNK4Napi3Env4NullEv
FNDA:274484,_ZN4Napi5ValueC2Ev
FNDA:21953909,_ZN4Napi5ValueC2EP10napi_env__P12napi_value__
FNDA:28288192,_ZNK4Napi5ValuecvP12napi_value__Ev
FNDA:19786780,_ZNK4Napi5Value3EnvEv
FNDA:321169,_ZNK4Napi5Value4TypeEv
FNDA:321169,_ZNK4Napi5Value10IsFunctionEv
FNDA:6790,_ZNK4Napi5Value2AsINS_7BooleanEEET_v
FNDA:13749,_ZNK4Napi5Value2AsINS_6NumberEEET_v
FNDA:321168,_ZNK4Napi5Value2AsINS_8FunctionEEET_v
FNDA:2526359,_ZNK4Napi5Value2AsINS_6ObjectEEET_v
FNDA:3395,_ZNK4Napi5Value2AsINS_6StringEEET_v
FNDA:980741,_ZN4Napi7Boolean3NewEP10napi_env__b
FNDA:987531,_ZN4Napi7BooleanC2EP10napi_env__P12napi_value__
FNDA:58682,_ZNK4Napi7BooleancvbEv
FNDA:58682,_ZNK4Napi7Boolean5ValueEv
FNDA:927524,_ZN4Napi6Number3NewEP10napi_env__d
FNDA:941273,_ZN4Napi6NumberC2EP10napi_env__P12napi_value__
FNDA:13615,_ZNK4Napi6NumbercvjEv
FNDA:13615,_ZNK4Napi6Number11Uint32ValueEv
FNDA:134,_ZNK4Napi6Number10Int64ValueEv
FNDA:3395,_ZN4Napi4NameC2EP10napi_env__P12napi_value__
FNDA:3395,_ZN4Napi6StringC2EP10napi_env__P12napi_value__
FNDA:0,_ZNK4Napi6StringcvNSt7__cxx1112basic_stringIcSt11char_traitsIcESaIcEEEB5cxx11Ev
FNDA:3395,_ZNK4Napi6String9Utf8ValueB5cxx11Ev
FNDA:273671,_ZN4Napi6Object14PropertyLValueIjEaSINS_5ValueEEERS2_T_
FNDA:273671,_ZN4Napi6Object14PropertyLValueIjEC2ES0_j
FNDA:3397350,_ZN4Napi6Object3NewEP10napi_env__
FNDA:274484,_ZN4Napi6ObjectC2Ev
FNDA:18026554,_ZN4Napi6ObjectC2EP10napi_env__P12napi_value__
FNDA:273671,_ZN4Napi6ObjectixEj
FNDA:0,_ZNK4Napi6Object3GetEPKc
FNDA:253,_ZN4Napi6Object3SetEPKcNS_5ValueE
FNDA:648428,_ZN4Napi6Object3SetEjNS_5ValueE
FNDA:921741,_ZN4Napi5Array3NewEP10napi_env__
FNDA:921741,_ZN4Napi5ArrayC2EP10napi_env__P12napi_value__
FNDA:546089,_ZNK4Napi5Array6LengthEv
FNDA:1,_ZN4Napi8Function3NewIPFvRKNS_12CallbackInfoEEEES0_P10napi_env__T_PKcPv
FNDA:3718772,_ZN4Napi8FunctionC2EP10napi_env__P12napi_value__
FNDA:321169,_ZNK4Napi8Function12MakeCallbackEP12napi_value__RKSt16initializer_listIS2_E
FNDA:321169,_ZNK4Napi8Function12MakeCallbackEP12napi_value__mPKS2_
FNDA:17,_ZN4Napi6BufferIhE3NewEP10napi_env__m
FNDA:936461,_ZN4Napi6BufferIhE3NewEP10napi_env__Phm
FNDA:9,_ZN4Napi6BufferImE3NewEP10napi_env__Pmm
FNDA:274484,_ZN4Napi6BufferIhEC2Ev
FNDA:936478,_ZN4Napi6BufferIhEC2EP10napi_env__P12napi_value__mPh
FNDA:9,_ZN4Napi6BufferImEC2EP10napi_env__P12napi_value__mPm
FNDA:51889,_ZNK4Napi6BufferIhE6LengthEv
FNDA:51889,_ZNK4Napi6BufferIhE10EnsureInfoEv
FNDA:0,_ZN4Napi5Error3NewEP10napi_env__
FNDA:3,_ZN4Napi5Error3NewEP10napi_env__RKNSt7__cxx1112basic_stringIcSt11char_traitsIcESaIcEEE
FNDA:0,_ZN4Napi5Error5FatalEPKcS2_
FNDA:3,_ZN4Napi5ErrorC2EP10napi_env__P12napi_value__
FNDA:0,_ZNK4Napi5Error7MessageB5cxx11Ev
FNDA:3,_ZNK4Napi5Error26ThrowAsJavaScriptExceptionEv
FNDA:0,_ZNK4Napi5Error4whatEv
FNDA:3,_ZN4Napi5Error3NewIS0_EET_P10napi_env__PKcmPF11napi_statusS4_P12napi_value__S9_PS9_E
FNDA:3397350,_ZN4Napi9ReferenceINS_8FunctionEE3NewERKS1_j
FNDA:6794700,_ZN4Napi9ReferenceINS_6ObjectEE3NewERKS1_j
FNDA:3395,_ZN4Napi9ReferenceINS_6ObjectEEC2Ev
FNDA:3397350,_ZN4Napi9ReferenceINS_8FunctionEEC2EP10napi_env__P10napi_ref__
FNDA:6798098,_ZN4Napi9ReferenceINS_6ObjectEEC2EP10napi_env__P10napi_ref__
FNDA:6794700,_ZN4Napi9ReferenceINS_8FunctionEED2Ev
FNDA:13595441,_ZN4Napi9ReferenceINS_6ObjectEED2Ev
FNDA:3397350,_ZN4Napi9ReferenceINS_8FunctionEEC2EOS2_
FNDA:6794700,_ZN4Napi9ReferenceINS_6ObjectEEC2EOS2_
FNDA:3395,_ZN4Napi9ReferenceINS_6ObjectEEaSEOS2_
FNDA:3,_ZNK4Napi9ReferenceINS_6ObjectEE7IsEmptyEv
FNDA:3397350,_ZNK4Napi9ReferenceINS_8FunctionEE5ValueEv
FNDA:3718522,_ZNK4Napi9ReferenceINS_6ObjectEE5ValueEv
FNDA:3395,_ZN4Napi9ReferenceINS_6ObjectEE5ResetEv
FNDA:6794700,_ZN4Napi10PersistentENS_6ObjectE
FNDA:3397350,_ZN4Napi10PersistentENS_8FunctionE
FNDA:3,_ZN4Napi15ObjectReferenceC2EP10napi_env__P10napi_ref__
FNDA:6794700,_ZN4Napi15ObjectReferenceC2EONS_9ReferenceINS_6ObjectEEE
FNDA:0,_ZNK4Napi15ObjectReference3GetEPKc
FNDA:3397350,_ZN4Napi17FunctionReferenceC2EONS_9ReferenceINS_8FunctionEEE
FNDA:321169,_ZNK4Napi17FunctionReference12MakeCallbackEP12napi_value__RKSt16initializer_listIS2_E
FNDA:2529755,_ZN4Napi12CallbackInfoC2EP10napi_env__P20napi_callback_info__
FNDA:2529755,_ZN4Napi12CallbackInfoD2Ev
FNDA:2844518,_ZNK4Napi12CallbackInfo3EnvEv
FNDA:608056,_ZNK4Napi12CallbackInfo6LengthEv
FNDA:345103,_ZNK4Napi12CallbackInfoixEm
FNDA:2533146,_ZNK4Napi12CallbackInfo4ThisEv
FNDA:2526360,_ZNK4Napi12CallbackInfo4DataEv
FNDA:2526360,_ZN4Napi12CallbackInfo7SetDataEPv
FNDA:3395,_ZN4Napi10ObjectWrapI9DisruptorEC2ERKNS_12CallbackInfoE
FNDA:2526359,_ZN4Napi10ObjectWrapI9DisruptorE6UnwrapENS_6ObjectE
FNDA:253,_ZN4Napi10ObjectWrapI9DisruptorE11DefineClassENS_3EnvEPKcRKSt16initializer_listINS_23ClassPropertyDescriptorIS1_EEEPv
FNDA:1265,_ZN4Napi10ObjectWrapI9DisruptorE14InstanceMethodEPKcMS1_FvRKNS_12CallbackInfoEE24napi_property_attributesPv
FNDA:2530,_ZN4Napi10ObjectWrapI9DisruptorE14InstanceMethodEPKcMS1_FNS_5ValueERKNS_12CallbackInfoEE24napi_property_attributesPv
FNDA:2530,_ZN4Napi10ObjectWrapI9DisruptorE16InstanceAccessorEPKcMS1_FNS_5ValueERKNS_12CallbackInfoEEMS1_FvS8_RKS5_E24napi_property_attributesPv
FNDA:3395,_ZN4Napi10ObjectWrapI9DisruptorE26ConstructorCallbackWrapperEP10napi_env__P20napi_callback_info__
FNDA:3395,_ZZN4Napi10ObjectWrapI9DisruptorE26ConstructorCallbackWrapperEP10napi_env__P20napi_callback_info__ENKUlvE_clEv
FNDA:4782,_ZN4Napi10ObjectWrapI9DisruptorE33InstanceVoidMethodCallbackWrapperEP10napi_env__P20napi_callback_info__
FNDA:4782,_ZZN4Napi10ObjectWrapI9DisruptorE33InstanceVoidMethodCallbackWrapperEP10napi_env__P20napi_callback_info__ENKUlvE_clEv
FNDA:1868196,_ZN4Napi10ObjectWrapI9DisruptorE29InstanceMethodCallbackWrapperEP10napi_env__P20napi_callback_info__
FNDA:1868196,_ZZN4Napi10ObjectWrapI9DisruptorE29InstanceMethodCallbackWrapperEP10napi_env__P20napi_callback_info__ENKUlvE_clEv
FNDA:653381,_ZN4Napi10ObjectWrapI9DisruptorE29InstanceGetterCallbackWrapperEP10napi_env__P20napi_callback_info__
FNDA:653381,_ZZN4Napi10ObjectWrapI9DisruptorE29InstanceGetterCallbackWrapperEP10napi_env__P20napi_callback_info__ENKUlvE_clEv
FNDA:0,_ZN4Napi10ObjectWrapI9DisruptorE29InstanceSetterCallbackWrapperEP10napi_env__P20napi_callback_info__
FNDA:0,_ZZN4Napi10ObjectWrapI9DisruptorE29InstanceSetterCallbackWrapperEP10napi_env__P20napi_callback_info__ENKUlvE_clEv
FNDA:2640,_ZN4Napi10ObjectWrapI9DisruptorE16FinalizeCallbackEP10napi_env__PvS5_
FNDA:3397353,_ZN4Napi11HandleScopeC2ENS_3EnvE
FNDA:3397353,_ZN4Napi11HandleScopeD2Ev
FNDA:321169,_ZN4Napi20EscapableHandleScopeC2ENS_3EnvE
FNDA:321169,_ZN4Napi20EscapableHandleScopeD2Ev
FNDA:321169,_ZN4Napi20EscapableHandleScope6EscapeEP12napi_value__
FNDA:3397350,_ZN4Napi11AsyncWorkerC2ERKNS_8FunctionE
FNDA:3397350,_ZN4Napi11AsyncWorkerC2ERKNS_6ObjectERKNS_8FunctionE
FNDA:0,_ZN4Napi11AsyncWorkerD0Ev
FNDA:3397350,_ZN4Napi11AsyncWorkerD2Ev
FNDA:3716637,_ZNK4Napi11AsyncWorker3EnvEv
FNDA:3397350,_ZN4Napi11AsyncWorker5QueueEv
FNDA:321169,_ZN4Napi11AsyncWorker8ReceiverEv
FNDA:3397350,_ZN4Napi11AsyncWorker8CallbackEv
FNDA:0,_ZN4Napi11AsyncWorker4OnOKEv
FNDA:0,_ZN4Napi11AsyncWorker7OnErrorERKNS_5ErrorE
FNDA:0,_ZN4Napi11AsyncWorker8SetErrorERKNSt7__cxx1112basic_stringIcSt11char_traitsIcESaIcEEE
FNDA:3396966,_ZN4Napi11AsyncWorker9OnExecuteEP10napi_env__Pv
FNDA:3397350,_ZN4Napi11AsyncWorker14OnWorkCompleteEP10napi_env__11napi_statusPv
FNDA:3397350,_ZZN4Napi11AsyncWorker14OnWorkCompleteEP10napi_env__11napi_statusPvENKUlvE_clEv
FNF:137
FNH:123
DA:54,5927358
DA:57,5927358
DA:58,6
DA:59,3
DA:60,3
DA:89,1
DA:90,2
DA:91,2
DA:93,1
DA:94,1
DA:95,1
DA:96,2
DA:97,1
DA:169,253
DA:173,253
DA:174,1012
DA:175,253
DA:176,506
DA:177,253
DA:178,253
DA:179,253
DA:185,29765634
DA:186,29765634
DA:188,29291130
DA:189,29291130
DA:199,686546
DA:201,686546
DA:202,686546
DA:203,686546
DA:206,321169
DA:208,321169
DA:209,321169
DA:210,321169
DA:234,274484
DA:235,274484
DA:237,21953909
DA:238,21953909
DA:240,28288192
DA:241,28288192
DA:259,19786780
DA:260,19786780
DA:267,321169
DA:268,321169
DA:269,0
DA:273,321169
DA:274,321169
DA:275,321169
DA:339,321169
DA:340,321169
DA:355,2871461
DA:356,2871461
DA:391,980741
DA:393,980741
DA:394,980741
DA:395,980741
DA:401,987531
DA:402,987531
DA:404,58682
DA:405,58682
DA:408,58682
DA:410,58682
DA:411,58682
DA:412,58682
DA:419,927524
DA:421,927524
DA:422,927524
DA:423,927524
DA:429,941273
DA:430,941273
DA:436,13615
DA:437,13615
DA:459,13615
DA:461,13615
DA:462,13615
DA:463,13615
DA:466,134
DA:468,134
DA:469,134
DA:470,134
DA:491,3395
DA:492,3395
DA:537,3395
DA:538,3395
DA:540,0
DA:541,0
DA:548,3395
DA:550,3395
DA:551,3395
DA:553,3395
DA:554,3395
DA:555,3395
DA:556,3395
DA:557,3395
DA:558,3395
DA:617,273671
DA:618,273671
DA:619,273671
DA:623,273671
DA:624,273671
DA:626,3397350
DA:628,3397350
DA:629,3397350
DA:630,3397350
DA:633,274484
DA:634,274484
DA:636,18026554
DA:637,18026554
DA:647,273671
DA:648,273671
DA:702,0
DA:704,0
DA:705,0
DA:706,0
DA:723,253
DA:724,253
DA:725,253
DA:726,253
DA:784,648428
DA:785,648428
DA:786,648428
DA:787,648428
DA:912,921741
DA:914,921741
DA:915,921741
DA:916,921741
DA:929,921741
DA:930,921741
DA:932,546089
DA:934,546089
DA:935,546089
DA:936,546089
DA:1201,1
DA:1208,1
DA:1211,1
DA:1212,1
DA:1213,1
DA:1214,1
DA:1228,3718772
DA:1229,3718772
DA:1263,321169
DA:1265,321169
DA:1273,321169
DA:1276,321169
DA:1277,642338
DA:1278,321169
DA:1279,321169
DA:1303,17
DA:1306,17
DA:1307,17
DA:1308,17
DA:1312,936470
DA:1314,936470
DA:1315,936470
DA:1316,936470
DA:1317,936470
DA:1377,274484
DA:1378,274484
DA:1386,936487
DA:1387,936487
DA:1388,936487
DA:1391,51889
DA:1392,51889
DA:1393,51889
DA:1403,51889
DA:1407,51889
DA:1410,0
DA:1411,0
DA:1412,0
DA:1413,0
DA:1415,51889
DA:1421,0
DA:1423,0
DA:1426,0
DA:1427,0
DA:1429,0
DA:1430,0
DA:1431,0
DA:1432,0
DA:1435,0
DA:1436,0
DA:1439,0
DA:1440,0
DA:1442,0
DA:1443,0
DA:1444,0
DA:1448,0
DA:1453,0
DA:1455,0
DA:1456,0
DA:1461,0
DA:1462,0
DA:1464,0
DA:1465,0
DA:1467,0
DA:1472,0
DA:1479,3
DA:1480,3
DA:1483,0
DA:1484,0
DA:1490,3
DA:1491,3
DA:1492,3
DA:1496,3
DA:1498,3
DA:1526,0
DA:1527,0
DA:1530,0
DA:1532,0
DA:1540,0
DA:1543,3
DA:1544,6
DA:1545,3
DA:1546,3
DA:1547,3
DA:1549,3
DA:1553,0
DA:1554,0
DA:1560,3
DA:1565,3
DA:1566,3
DA:1569,3
DA:1570,3
DA:1572,3
DA:1608,10192050
DA:1609,10192050
DA:1610,10192050
DA:1612,10192050
DA:1613,0
DA:1617,10192050
DA:1618,10192050
DA:1620,10192050
DA:1625,3395
DA:1626,3395
DA:1629,10195448
DA:1630,10195448
DA:1631,10195448
DA:1634,20390141
DA:1635,20390141
DA:1636,10194696
DA:1637,10194696
DA:1640,10194696
DA:1642,20390141
DA:1645,10192050
DA:1646,10192050
DA:1647,10192050
DA:1648,10192050
DA:1649,10192050
DA:1650,10192050
DA:1653,3395
DA:1654,3395
DA:1655,3395
DA:1656,3395
DA:1657,3395
DA:1658,3395
DA:1659,3395
DA:1660,3395
DA:1661,3395
DA:1700,3
DA:1701,3
DA:1705,7115872
DA:1706,7115872
DA:1707,0
DA:1711,7115872
DA:1712,7115872
DA:1713,7115872
DA:1733,3395
DA:1734,3395
DA:1735,0
DA:1736,0
DA:1737,0
DA:1739,3395
DA:1776,6794700
DA:1777,6794700
DA:1780,3397350
DA:1781,3397350
DA:1791,3
DA:1792,3
DA:1794,6794700
DA:1795,6794700
DA:1796,6794700
DA:1816,0
DA:1817,0
DA:1818,0
DA:1922,3397350
DA:1923,3397350
DA:1924,3397350
DA:1968,321169
DA:1970,642338
DA:1971,642338
DA:1994,2529755
DA:1995,2529755
DA:1996,2529755
DA:1997,2529755
DA:1998,2529755
DA:1999,2529755
DA:2001,2529755
DA:2004,3395
DA:2005,3395
DA:2007,3395
DA:2008,3395
DA:2010,2529755
DA:2012,5059510
DA:2013,2529755
DA:2014,3395
DA:2016,2529755
DA:2025,2844518
DA:2026,2844518
DA:2029,608056
DA:2030,608056
DA:2033,345103
DA:2034,345103
DA:2037,2533146
DA:2038,2533146
DA:2039,0
DA:2041,2533146
DA:2044,2526360
DA:2045,2526360
DA:2048,2526360
DA:2049,2526360
DA:2050,2526360
DA:2287,3395
DA:2288,3395
DA:2289,3395
DA:2292,3395
DA:2293,3395
DA:2294,3395
DA:2296,3395
DA:2297,3395
DA:2298,3395
DA:2301,2526359
DA:2303,2526359
DA:2304,2526359
DA:2305,2526359
DA:2309,253
DA:2315,253
DA:2317,506
DA:2318,253
DA:2320,253
DA:2393,1265
DA:2400,1265
DA:2402,1265
DA:2403,1265
DA:2404,1265
DA:2405,1265
DA:2406,1265
DA:2407,1265
DA:2411,2530
DA:2417,2530
DA:2419,2530
DA:2420,2530
DA:2421,2530
DA:2422,2530
DA:2423,2530
DA:2424,2530
DA:2428,2530
DA:2436,2530
DA:2438,2530
DA:2439,2530
DA:2440,2530
DA:2441,2530
DA:2442,2530
DA:2443,2530
DA:2444,2530
DA:2470,3395
DA:2474,3395
DA:2475,3395
DA:2477,3395
DA:2478,0
DA:2479,0
DA:2483,6790
DA:2484,6790
DA:2485,3398
DA:2486,6784
DA:2487,3395
DA:2489,3395
DA:2547,4782
DA:2550,9564
DA:2551,9564
DA:2553,4782
DA:2554,4782
DA:2555,4782
DA:2556,4782
DA:2557,4782
DA:2558,9564
DA:2559,4782
DA:2563,1868196
DA:2566,3736392
DA:2567,3736392
DA:2569,1868196
DA:2570,1868196
DA:2571,1868196
DA:2572,1868196
DA:2573,3736392
DA:2574,1868196
DA:2578,653381
DA:2581,1306762
DA:2582,1306762
DA:2584,653381
DA:2585,653381
DA:2586,653381
DA:2587,653381
DA:2588,1306762
DA:2589,653381
DA:2593,0
DA:2596,0
DA:2597,0
DA:2599,0
DA:2600,0
DA:2601,0
DA:2602,0
DA:2603,0
DA:2604,0
DA:2605,0
DA:2609,2640
DA:2610,2640
DA:2611,2640
DA:2612,2640
DA:2622,3397353
DA:2623,3397353
DA:2624,3397353
DA:2625,3397353
DA:2627,6794706
DA:2628,3397353
DA:2629,3397353
DA:2647,321169
DA:2648,321169
DA:2649,321169
DA:2650,321169
DA:2652,642338
DA:2653,321169
DA:2654,321169
DA:2664,321169
DA:2666,321169
DA:2667,321169
DA:2668,321169
DA:2675,3397350
DA:2676,3397350
DA:2677,3397350
DA:2679,3397350
DA:2680,6794700
DA:2682,10192050
DA:2683,3397350
DA:2684,3397350
DA:2685,3397350
DA:2686,3397350
DA:2688,6794700
DA:2689,3397350
DA:2690,3397350
DA:2691,3397350
DA:2693,3397350
DA:2720,3716637
DA:2721,3716637
DA:2724,3397350
DA:2725,3397350
DA:2726,3397350
DA:2727,3397350
DA:2734,321169
DA:2735,321169
DA:2738,3397350
DA:2739,3397350
DA:2742,0
DA:2743,0
DA:2744,0
DA:2746,0
DA:2747,0
DA:2748,0
DA:2750,0
DA:2751,0
DA:2752,0
DA:2754,3396966
DA:2755,3396966
DA:2758,3396966
DA:2759,0
DA:2760,0
DA:2765,3396808
DA:2767,3397350
DA:2769,3397350
DA:2770,3397350
DA:2771,6794700
DA:2772,3397350
DA:2773,10192050
DA:2774,10192050
DA:2777,0
DA:2779,3397350
DA:2780,3397350
DA:2782,3397350
DA:2783,3397350
LF:487
LH:409
end_of_record
SF:/home/david/shared-memory-disruptor/node_modules/node-addon-api/napi.h
FN:900,_ZN4Napi15ObjectReferenceD2Ev
FN:937,_ZN4Napi17FunctionReferenceD2Ev
FN:1062,_ZN4Napi5ErrorD2Ev
FN:1062,_ZN4Napi5ErrorD0Ev
FN:1248,_ZN4Napi23ClassPropertyDescriptorI9DisruptorEC2E24napi_property_descriptor
FN:1283,_ZN4Napi10ObjectWrapI9DisruptorED2Ev
FNDA:6794703,_ZN4Napi15ObjectReferenceD2Ev
FNDA:3397350,_ZN4Napi17FunctionReferenceD2Ev
FNDA:0,_ZN4Napi5ErrorD0Ev
FNDA:3,_ZN4Napi5ErrorD2Ev
FNDA:6325,_ZN4Napi23ClassPropertyDescriptorI9DisruptorEC2E24napi_property_descriptor
FNDA:2643,_ZN4Napi10ObjectWrapI9DisruptorED2Ev
FNF:6
FNH:5
DA:900,6794703
DA:937,3397350
DA:1062,3
DA:1248,6325
DA:1283,2643
LF:5
LH:5
end_of_record
SF:/usr/include/c++/6/bits/alloc_traits.h
FN:435,_ZNSt16allocator_traitsISaI11AsyncBufferIhEEE8allocateERS2_m
FN:461,_ZNSt16allocator_traitsISaI11AsyncBufferIhEEE10deallocateERS2_PS1_m
FN:495,_ZNSt16allocator_traitsISaI11AsyncBufferIhEEE8max_sizeERKS2_
FNDA:273640,_ZNSt16allocator_traitsISaI11AsyncBufferIhEEE8allocateERS2_m
FNDA:273671,_ZNSt16allocator_traitsISaI11AsyncBufferIhEEE10deallocateERS2_PS1_m
FNDA:547187,_ZNSt16allocator_traitsISaI11AsyncBufferIhEEE8max_sizeERKS2_
FNF:3
FNH:3
DA:435,273640
DA:436,273640
DA:461,273671
DA:462,273671
DA:495,547187
DA:496,547187
LF:6
LH:6
end_of_record
SF:/usr/include/c++/6/bits/allocator.h
FN:131,_ZNSaI11AsyncBufferIhEEC2Ev
FN:139,_ZNSaI11AsyncBufferIhEED2Ev
FNDA:2192607,_ZNSaI11AsyncBufferIhEEC2Ev
FNDA:2182130,_ZNSaI11AsyncBufferIhEED2Ev
FNF:2
FNH:2
DA:131,2192607
DA:139,2182130
LF:2
LH:2
end_of_record
SF:/usr/include/c++/6/bits/basic_string.h
FN:107,_ZNSt7__cxx1112basic_stringIcSt11char_traitsIcESaIcEE12_Alloc_hiderD2Ev
FN:192,_ZNSt7__cxx1112basic_stringIcSt11char_traitsIcESaIcEE16_M_construct_auxIPcEEvT_S7_St12__false_type
FN:212,_ZNSt7__cxx1112basic_stringIcSt11char_traitsIcESaIcEE12_M_constructIPcEEvT_S7_
FN:549,_ZNSt7__cxx1112basic_stringIcSt11char_traitsIcESaIcEEC2IPcvEET_S7_RKS3_
FN:5021,_ZStplIcSt11char_traitsIcESaIcEENSt7__cxx1112basic_stringIT_T0_T1_EEOS8_S9_
FN:5045,_ZStplIcSt11char_traitsIcESaIcEENSt7__cxx1112basic_stringIT_T0_T1_EEOS8_PKS5_
FN:5470,_ZNSt7__cxx119to_stringEi
FNDA:0,_ZNSt7__cxx1112basic_stringIcSt11char_traitsIcESaIcEE12_Alloc_hiderD2Ev
FNDA:0,_ZNSt7__cxx1112basic_stringIcSt11char_traitsIcESaIcEE16_M_construct_auxIPcEEvT_S7_St12__false_type
FNDA:0,_ZNSt7__cxx1112basic_stringIcSt11char_traitsIcESaIcEE12_M_constructIPcEEvT_S7_
FNDA:0,_ZNSt7__cxx1112basic_stringIcSt11char_traitsIcESaIcEEC2IPcvEET_S7_RKS3_
FNDA:3,_ZStplIcSt11char_traitsIcESaIcEENSt7__cxx1112basic_stringIT_T0_T1_EEOS8_S9_
FNDA:3,_ZStplIcSt11char_traitsIcESaIcEENSt7__cxx1112basic_stringIT_T0_T1_EEOS8_PKS5_
FNDA:0,_ZNSt7__cxx119to_stringEi
FNF:7
FNH:2
DA:107,0
DA:192,0
DA:196,0
DA:197,0
DA:212,0
DA:215,0
DA:216,0
DA:549,0
DA:551,0
DA:552,0
DA:5021,3
DA:5024,3
DA:5025,3
DA:5026,3
DA:5027,0
DA:5028,3
DA:5045,3
DA:5047,3
DA:5470,0
DA:5472,0
LF:20
LH:7
end_of_record
SF:/usr/include/c++/6/bits/basic_string.tcc
FN:206,_ZNSt7__cxx1112basic_stringIcSt11char_traitsIcESaIcEE12_M_constructIPcEEvT_S7_St20forward_iterator_tag
FNDA:0,_ZNSt7__cxx1112basic_stringIcSt11char_traitsIcESaIcEE12_M_constructIPcEEvT_S7_St20forward_iterator_tag
FNF:1
FNH:0
DA:206,0
DA:211,0
DA:212,0
DA:215,0
DA:217,0
DA:219,0
DA:220,0
DA:225,0
DA:226,0
DA:228,0
DA:229,0
DA:232,0
DA:233,0
LF:13
LH:0
end_of_record
SF:/usr/include/c++/6/bits/move.h
FN:47,_ZSt11__addressofI11AsyncBufferIhEEPT_RS2_
FN:76,_ZSt7forwardISt14default_deleteISt6vectorI11AsyncBufferIhESaIS3_EEEEOT_RNSt16remove_referenceIS7_E4typeE
FN:76,_ZSt7forwardIPSt6vectorI11AsyncBufferIhESaIS2_EEEOT_RNSt16remove_referenceIS6_E4typeE
FN:76,_ZSt7forwardI11AsyncBufferIhEEOT_RNSt16remove_referenceIS2_E4typeE
FN:101,_ZSt4moveIRNSt7__cxx1112basic_stringIcSt11char_traitsIcESaIcEEEEONSt16remove_referenceIT_E4typeEOS8_
FN:101,_ZSt4moveIR11AsyncBufferIhEEONSt16remove_referenceIT_E4typeEOS4_
FN:101,_ZSt4moveIRN4Napi9ReferenceINS0_6ObjectEEEEONSt16remove_referenceIT_E4typeEOS6_
FN:101,_ZSt4moveIRPSt6vectorI11AsyncBufferIhESaIS2_EEEONSt16remove_referenceIT_E4typeEOS8_
FN:101,_ZSt4moveIRN4Napi9ReferenceINS0_8FunctionEEEEONSt16remove_referenceIT_E4typeEOS6_
FN:179,_ZSt4swapIPSt6vectorI11AsyncBufferIhESaIS2_EEENSt9enable_ifIXsrSt6__and_IJSt21is_move_constructibleIT_ESt18is_move_assignableIS9_EEE5valueEvE4typeERS9_SG_
FNDA:273614,_ZSt11__addressofI11AsyncBufferIhEEPT_RS2_
FNDA:3,_ZSt7forwardI11AsyncBufferIhEEOT_RNSt16remove_referenceIS2_E4typeE
FNDA:820678,_ZSt7forwardIPSt6vectorI11AsyncBufferIhESaIS2_EEEOT_RNSt16remove_referenceIS6_E4typeE
FNDA:2464882,_ZSt7forwardISt14default_deleteISt6vectorI11AsyncBufferIhESaIS3_EEEEOT_RNSt16remove_referenceIS7_E4typeE
FNDA:3292458,_ZSt4moveIRPSt6vectorI11AsyncBufferIhESaIS2_EEEONSt16remove_referenceIT_E4typeEOS8_
FNDA:273649,_ZSt4moveIR11AsyncBufferIhEEONSt16remove_referenceIT_E4typeEOS4_
FNDA:6,_ZSt4moveIRNSt7__cxx1112basic_stringIcSt11char_traitsIcESaIcEEEEONSt16remove_referenceIT_E4typeEOS8_
FNDA:3397350,_ZSt4moveIRN4Napi9ReferenceINS0_8FunctionEEEEONSt16remove_referenceIT_E4typeEOS6_
FNDA:6794700,_ZSt4moveIRN4Napi9ReferenceINS0_6ObjectEEEEONSt16remove_referenceIT_E4typeEOS6_
FNDA:1097506,_ZSt4swapIPSt6vectorI11AsyncBufferIhESaIS2_EEENSt9enable_ifIXsrSt6__and_IJSt21is_move_constructibleIT_ESt18is_move_assignableIS9_EEE5valueEvE4typeERS9_SG_
FNF:10
FNH:10
DA:47,273614
DA:50,273614
DA:76,3285563
DA:77,3285563
DA:101,13758163
DA:102,13758163
DA:179,1097506
DA:190,1097506
DA:191,1097530
DA:192,1097542
DA:193,1097530
LF:11
LH:11
end_of_record
SF:/usr/include/c++/6/bits/stl_algobase.h
FN:219,_ZSt3maxImERKT_S2_S2_
FNDA:273616,_ZSt3maxImERKT_S2_S2_
FNF:1
FNH:1
DA:219,273616
DA:224,273616
DA:225,273613
DA:226,3
LF:4
LH:4
end_of_record
SF:/usr/include/c++/6/bits/stl_construct.h
FN:74,_ZSt10_ConstructI11AsyncBufferIhEJS1_EEvPT_DpOT0_
FN:74,_ZSt10_ConstructI11AsyncBufferIhEJEEvPT_DpOT0_
FN:112,_ZNSt12_Destroy_auxILb1EE9__destroyIP11AsyncBufferIhEEEvT_S5_
FN:122,_ZSt8_DestroyIP11AsyncBufferIhEEvT_S3_
FN:148,_ZSt8_DestroyIP11AsyncBufferIhES1_EvT_S3_RSaIT0_E
FNDA:3,_ZSt10_ConstructI11AsyncBufferIhEJS1_EEvPT_DpOT0_
FNDA:273615,_ZSt10_ConstructI11AsyncBufferIhEJEEvPT_DpOT0_
FNDA:2450929,_ZNSt12_Destroy_auxILb1EE9__destroyIP11AsyncBufferIhEEEvT_S5_
FNDA:2451165,_ZSt8_DestroyIP11AsyncBufferIhEEvT_S3_
FNDA:2451322,_ZSt8_DestroyIP11AsyncBufferIhES1_EvT_S3_RSaIT0_E
FNF:5
FNH:5
DA:74,273618
DA:75,273618
DA:112,2450929
DA:122,2451165
DA:126,2451165
DA:128,2452310
DA:148,2451322
DA:151,2451322
DA:152,2453036
LF:9
LH:9
end_of_record
SF:/usr/include/c++/6/bits/stl_iterator.h
FN:1032,_ZNSt13move_iteratorIP11AsyncBufferIhEEC2ES2_
FN:1040,_ZNKSt13move_iteratorIP11AsyncBufferIhEE4baseEv
FN:1044,_ZNKSt13move_iteratorIP11AsyncBufferIhEEdeEv
FN:1052,_ZNSt13move_iteratorIP11AsyncBufferIhEEppEv
FN:1119,_ZSteqIP11AsyncBufferIhEEbRKSt13move_iteratorIT_ES7_
FN:1131,_ZStneIP11AsyncBufferIhEEbRKSt13move_iteratorIT_ES7_
FN:1223,_ZSt32__make_move_if_noexcept_iteratorI11AsyncBufferIhESt13move_iteratorIPS1_EET0_PT_
FNDA:547235,_ZNSt13move_iteratorIP11AsyncBufferIhEEC2ES2_
FNDA:547235,_ZNKSt13move_iteratorIP11AsyncBufferIhEE4baseEv
FNDA:3,_ZNKSt13move_iteratorIP11AsyncBufferIhEEdeEv
FNDA:3,_ZNSt13move_iteratorIP11AsyncBufferIhEEppEv
FNDA:273599,_ZSteqIP11AsyncBufferIhEEbRKSt13move_iteratorIT_ES7_
FNDA:273617,_ZStneIP11AsyncBufferIhEEbRKSt13move_iteratorIT_ES7_
FNDA:547211,_ZSt32__make_move_if_noexcept_iteratorI11AsyncBufferIhESt13move_iteratorIPS1_EET0_PT_
FNF:7
FNH:7
DA:1032,547235
DA:1033,547235
DA:1040,547235
DA:1041,547235
DA:1044,3
DA:1045,3
DA:1052,3
DA:1054,3
DA:1055,3
DA:1119,273599
DA:1121,273599
DA:1131,273617
DA:1133,273617
DA:1223,547211
DA:1224,547211
LF:15
LH:15
end_of_record
SF:/usr/include/c++/6/bits/stl_iterator_base_funcs.h
FN:96,_ZSt10__distanceIPcENSt15iterator_traitsIT_E15difference_typeES2_S2_St26random_access_iterator_tag
FN:135,_ZSt8distanceIPcENSt15iterator_traitsIT_E15difference_typeES2_S2_
FNDA:0,_ZSt10__distanceIPcENSt15iterator_traitsIT_E15difference_typeES2_S2_St26random_access_iterator_tag
FNDA:0,_ZSt8distanceIPcENSt15iterator_traitsIT_E15difference_typeES2_S2_
FNF:2
FNH:0
DA:96,0
DA:102,0
DA:135,0
DA:138,0
DA:139,0
LF:5
LH:0
end_of_record
SF:/usr/include/c++/6/bits/stl_iterator_base_types.h
FN:204,_ZSt19__iterator_categoryIPcENSt15iterator_traitsIT_E17iterator_categoryERKS2_
FNDA:0,_ZSt19__iterator_categoryIPcENSt15iterator_traitsIT_E17iterator_categoryERKS2_
FNF:1
FNH:0
DA:204,0
DA:205,0
LF:2
LH:0
end_of_record
SF:/usr/include/c++/6/bits/stl_uninitialized.h
FN:68,_ZNSt20__uninitialized_copyILb0EE13__uninit_copyISt13move_iteratorIP11AsyncBufferIhEES5_EET0_T_S8_S7_
FN:107,_ZSt18uninitialized_copyISt13move_iteratorIP11AsyncBufferIhEES3_ET0_T_S6_S5_
FN:279,_ZSt22__uninitialized_copy_aISt13move_iteratorIP11AsyncBufferIhEES3_S2_ET0_T_S6_S5_RSaIT1_E
FN:297,_ZSt34__uninitialized_move_if_noexcept_aIP11AsyncBufferIhES2_SaIS1_EET0_T_S5_S4_RT1_
FN:513,_ZNSt27__uninitialized_default_n_1ILb0EE18__uninit_default_nIP11AsyncBufferIhEmEET_S5_T0_
FN:566,_ZSt25__uninitialized_default_nIP11AsyncBufferIhEmET_S3_T0_
FN:635,_ZSt27__uninitialized_default_n_aIP11AsyncBufferIhEmS1_ET_S3_T0_RSaIT1_E
FNDA:273636,_ZNSt20__uninitialized_copyILb0EE13__uninit_copyISt13move_iteratorIP11AsyncBufferIhEES5_EET0_T_S8_S7_
FNDA:273638,_ZSt18uninitialized_copyISt13move_iteratorIP11AsyncBufferIhEES3_ET0_T_S6_S5_
FNDA:273653,_ZSt22__uninitialized_copy_aISt13move_iteratorIP11AsyncBufferIhEES3_S2_ET0_T_S6_S5_RSaIT1_E
FNDA:273629,_ZSt34__uninitialized_move_if_noexcept_aIP11AsyncBufferIhES2_SaIS1_EET0_T_S5_S4_RT1_
FNDA:273612,_ZNSt27__uninitialized_default_n_1ILb0EE18__uninit_default_nIP11AsyncBufferIhEmEET_S5_T0_
FNDA:273608,_ZSt25__uninitialized_default_nIP11AsyncBufferIhEmET_S3_T0_
FNDA:273618,_ZSt27__uninitialized_default_n_aIP11AsyncBufferIhEmS1_ET_S3_T0_RSaIT1_E
FNF:7
FNH:7
DA:68,273636
DA:71,273636
DA:74,273642
DA:75,3
DA:76,273638
DA:78,0
DA:80,0
DA:81,0
DA:107,273638
DA:120,273638
DA:126,273638
DA:279,273653
DA:281,273653
DA:297,273629
DA:303,273629
DA:304,273640
DA:513,273612
DA:515,273612
DA:518,820810
DA:519,273601
DA:520,273610
DA:566,273608
DA:571,273608
DA:575,273608
DA:635,273618
DA:637,273618
LF:26
LH:23
end_of_record
SF:/usr/include/c++/6/bits/stl_vector.h
FN:79,_ZNSt12_Vector_baseI11AsyncBufferIhESaIS1_EE12_Vector_implD2Ev
FN:86,_ZNSt12_Vector_baseI11AsyncBufferIhESaIS1_EE12_Vector_implC2Ev
FN:113,_ZNSt12_Vector_baseI11AsyncBufferIhESaIS1_EE19_M_get_Tp_allocatorEv
FN:117,_ZNKSt12_Vector_baseI11AsyncBufferIhESaIS1_EE19_M_get_Tp_allocatorEv
FN:124,_ZNSt12_Vector_baseI11AsyncBufferIhESaIS1_EEC2Ev
FN:159,_ZNSt12_Vector_baseI11AsyncBufferIhESaIS1_EED2Ev
FN:167,_ZNSt12_Vector_baseI11AsyncBufferIhESaIS1_EE11_M_allocateEm
FN:174,_ZNSt12_Vector_baseI11AsyncBufferIhESaIS1_EE13_M_deallocateEPS1_m
FN:255,_ZNSt6vectorI11AsyncBufferIhESaIS1_EEC2Ev
FN:425,_ZNSt6vectorI11AsyncBufferIhESaIS1_EED2Ev
FN:655,_ZNKSt6vectorI11AsyncBufferIhESaIS1_EE4sizeEv
FN:660,_ZNKSt6vectorI11AsyncBufferIhESaIS1_EE8max_sizeEv
FN:674,_ZNSt6vectorI11AsyncBufferIhESaIS1_EE6resizeEm
FN:780,_ZNSt6vectorI11AsyncBufferIhESaIS1_EEixEm
FN:1420,_ZNKSt6vectorI11AsyncBufferIhESaIS1_EE12_M_check_lenEmPKc
FN:1434,_ZNSt6vectorI11AsyncBufferIhESaIS1_EE15_M_erase_at_endEPS1_
FNDA:2182091,_ZNSt12_Vector_baseI11AsyncBufferIhESaIS1_EE12_Vector_implD2Ev
FNDA:2192685,_ZNSt12_Vector_baseI11AsyncBufferIhESaIS1_EE12_Vector_implC2Ev
FNDA:2994267,_ZNSt12_Vector_baseI11AsyncBufferIhESaIS1_EE19_M_get_Tp_allocatorEv
FNDA:547156,_ZNKSt12_Vector_baseI11AsyncBufferIhESaIS1_EE19_M_get_Tp_allocatorEv
FNDA:2192716,_ZNSt12_Vector_baseI11AsyncBufferIhESaIS1_EEC2Ev
FNDA:2180181,_ZNSt12_Vector_baseI11AsyncBufferIhESaIS1_EED2Ev
FNDA:273647,_ZNSt12_Vector_baseI11AsyncBufferIhESaIS1_EE11_M_allocateEm
FNDA:2452913,_ZNSt12_Vector_baseI11AsyncBufferIhESaIS1_EE13_M_deallocateEPS1_m
FNDA:2192743,_ZNSt6vectorI11AsyncBufferIhESaIS1_EEC2Ev
FNDA:2177288,_ZNSt6vectorI11AsyncBufferIhESaIS1_EED2Ev
FNDA:3557956,_ZNKSt6vectorI11AsyncBufferIhESaIS1_EE4sizeEv
FNDA:547162,_ZNKSt6vectorI11AsyncBufferIhESaIS1_EE8max_sizeEv
FNDA:273625,_ZNSt6vectorI11AsyncBufferIhESaIS1_EE6resizeEm
FNDA:547269,_ZNSt6vectorI11AsyncBufferIhESaIS1_EEixEm
FNDA:273579,_ZNKSt6vectorI11AsyncBufferIhESaIS1_EE12_M_check_lenEmPKc
FNDA:0,_ZNSt6vectorI11AsyncBufferIhESaIS1_EE15_M_erase_at_endEPS1_
FNF:16
FNH:15
DA:79,2182091
DA:86,2192685
DA:87,2192685
DA:88,2192569
DA:113,2994267
DA:114,2994267
DA:117,547156
DA:118,547156
DA:124,2192716
DA:125,2192716
DA:159,2180181
DA:160,4360362
DA:161,4362278
DA:167,273647
DA:170,273647
DA:174,2452913
DA:177,2452913
DA:178,273671
DA:179,2452913
DA:255,2192743
DA:259,2192743
DA:425,2177288
DA:426,2177527
DA:427,4357746
DA:655,3557956
DA:656,3557956
DA:660,547162
DA:661,547162
DA:674,273625
DA:676,273625
DA:677,273634
DA:678,0
DA:679,0
DA:680,273621
DA:780,547269
DA:781,547269
DA:1420,273579
DA:1422,273579
DA:1423,0
DA:1425,273608
DA:1426,273615
DA:1434,0
DA:1436,0
DA:1437,0
DA:1438,0
LF:45
LH:38
end_of_record
SF:/usr/include/c++/6/bits/unique_ptr.h
FN:57,_ZNSt14default_deleteISt6vectorI11AsyncBufferIhESaIS2_EEEC2Ev
FN:70,_ZNKSt14default_deleteISt6vectorI11AsyncBufferIhESaIS2_EEEclEPS4_
FN:170,_ZNSt10unique_ptrISt6vectorI11AsyncBufferIhESaIS2_EESt14default_deleteIS4_EEC2EPS4_
FN:170,_ZNSt10unique_ptrIi7CloseFDEC2EPi
FN:209,_ZNSt10unique_ptrISt6vectorI11AsyncBufferIhESaIS2_EESt14default_deleteIS4_EEC2EOS7_
FN:235,_ZNSt10unique_ptrISt6vectorI11AsyncBufferIhESaIS2_EESt14default_deleteIS4_EED2Ev
FN:235,_ZNSt10unique_ptrIi7CloseFDED2Ev
FN:252,_ZNSt10unique_ptrISt6vectorI11AsyncBufferIhESaIS2_EESt14default_deleteIS4_EEaSEOS7_
FN:291,_ZNKSt10unique_ptrIi7CloseFDEdeEv
FN:291,_ZNKSt10unique_ptrISt6vectorI11AsyncBufferIhESaIS2_EESt14default_deleteIS4_EEdeEv
FN:299,_ZNKSt10unique_ptrISt6vectorI11AsyncBufferIhESaIS2_EESt14default_deleteIS4_EEptEv
FN:307,_ZNKSt10unique_ptrIi7CloseFDE3getEv
FN:307,_ZNKSt10unique_ptrISt6vectorI11AsyncBufferIhESaIS2_EESt14default_deleteIS4_EE3getEv
FN:312,_ZNSt10unique_ptrISt6vectorI11AsyncBufferIhESaIS2_EESt14default_deleteIS4_EE11get_deleterEv
FN:312,_ZNSt10unique_ptrIi7CloseFDE11get_deleterEv
FN:328,_ZNSt10unique_ptrISt6vectorI11AsyncBufferIhESaIS2_EESt14default_deleteIS4_EE7releaseEv
FN:342,_ZNSt10unique_ptrISt6vectorI11AsyncBufferIhESaIS2_EESt14default_deleteIS4_EE5resetEPS4_
FN:790,_ZSt11make_uniqueISt6vectorI11AsyncBufferIhESaIS2_EEJEENSt9_MakeUniqIT_E15__single_objectEDpOT0_
FNDA:2190984,_ZNSt14default_deleteISt6vectorI11AsyncBufferIhESaIS2_EEEC2Ev
FNDA:2177255,_ZNKSt14default_deleteISt6vectorI11AsyncBufferIhESaIS2_EEEclEPS4_
FNDA:2192538,_ZNSt10unique_ptrISt6vectorI11AsyncBufferIhESaIS2_EESt14default_deleteIS4_EEC2EPS4_
FNDA:3395,_ZNSt10unique_ptrIi7CloseFDEC2EPi
FNDA:273435,_ZNSt10unique_ptrISt6vectorI11AsyncBufferIhESaIS2_EESt14default_deleteIS4_EEC2EOS7_
FNDA:2441294,_ZNSt10unique_ptrISt6vectorI11AsyncBufferIhESaIS2_EESt14default_deleteIS4_EED2Ev
FNDA:3395,_ZNSt10unique_ptrIi7CloseFDED2Ev
FNDA:1097370,_ZNSt10unique_ptrISt6vectorI11AsyncBufferIhESaIS2_EESt14default_deleteIS4_EEaSEOS7_
FNDA:547255,_ZNKSt10unique_ptrISt6vectorI11AsyncBufferIhESaIS2_EESt14default_deleteIS4_EEdeEv
FNDA:6960,_ZNKSt10unique_ptrIi7CloseFDEdeEv
FNDA:1917253,_ZNKSt10unique_ptrISt6vectorI11AsyncBufferIhESaIS2_EESt14default_deleteIS4_EEptEv
FNDA:3831426,_ZNKSt10unique_ptrISt6vectorI11AsyncBufferIhESaIS2_EESt14default_deleteIS4_EE3getEv
FNDA:6960,_ZNKSt10unique_ptrIi7CloseFDE3getEv
FNDA:4601968,_ZNSt10unique_ptrISt6vectorI11AsyncBufferIhESaIS2_EESt14default_deleteIS4_EE11get_deleterEv
FNDA:3395,_ZNSt10unique_ptrIi7CloseFDE11get_deleterEv
FNDA:1370842,_ZNSt10unique_ptrISt6vectorI11AsyncBufferIhESaIS2_EESt14default_deleteIS4_EE7releaseEv
FNDA:1097507,_ZNSt10unique_ptrISt6vectorI11AsyncBufferIhESaIS2_EESt14default_deleteIS4_EE5resetEPS4_
FNDA:2191783,_ZSt11make_uniqueISt6vectorI11AsyncBufferIhESaIS2_EEJEENSt9_MakeUniqIT_E15__single_objectEDpOT0_
FNF:18
FNH:18
DA:57,2190984
DA:70,2177255
DA:76,2177255
DA:77,2192907
DA:170,2195933
DA:171,2195933
DA:173,2194935
DA:176,2195149
DA:209,273435
DA:210,273435
DA:235,2444689
DA:237,2444689
DA:238,2445014
DA:239,1100958
DA:240,2445014
DA:241,2445014
DA:252,1097370
DA:254,1097370
DA:255,1097540
DA:256,1097540
DA:291,554215
DA:294,554215
DA:299,1917253
DA:302,1917253
DA:307,3838386
DA:308,3838386
DA:312,4605363
DA:313,4605363
DA:328,1370842
DA:330,1370842
DA:331,1371131
DA:332,1371095
DA:342,1097507
DA:345,1097507
DA:346,1097531
DA:347,1097542
DA:348,1097533
DA:790,2191783
DA:791,2191783
LF:39
LH:39
end_of_record
SF:/usr/include/c++/6/bits/vector.tcc
FN:540,_ZNSt6vectorI11AsyncBufferIhESaIS1_EE17_M_default_appendEm
FNDA:273603,_ZNSt6vectorI11AsyncBufferIhESaIS1_EE17_M_default_appendEm
FNF:1
FNH:1
DA:540,273603
DA:543,273603
DA:545,547300
DA:546,273650
DA:548,3
DA:549,0
DA:550,0
DA:555,273650
DA:556,273636
DA:557,273648
DA:558,273663
DA:561,273636
DA:563,273636
DA:564,273663
DA:565,273625
DA:567,273625
DA:569,0
DA:571,0
DA:572,0
DA:573,0
DA:574,0
DA:576,273629
DA:577,273619
DA:578,273634
DA:579,273634
DA:580,273634
DA:581,273638
DA:582,273638
DA:583,273638
DA:586,273594
LF:30
LH:23
end_of_record
SF:/usr/include/c++/6/exception
FN:63,_ZNSt9exceptionC2Ev
FNDA:3,_ZNSt9exceptionC2Ev
FNF:1
FNH:1
DA:63,3
LF:1
LH:1
end_of_record
SF:/usr/include/c++/6/ext/new_allocator.h
FN:79,_ZN9__gnu_cxx13new_allocatorI11AsyncBufferIhEEC2Ev
FN:86,_ZN9__gnu_cxx13new_allocatorI11AsyncBufferIhEED2Ev
FN:99,_ZN9__gnu_cxx13new_allocatorI11AsyncBufferIhEE8allocateEmPKv
FN:109,_ZN9__gnu_cxx13new_allocatorI11AsyncBufferIhEE10deallocateEPS2_m
FN:113,_ZNK9__gnu_cxx13new_allocatorI11AsyncBufferIhEE8max_sizeEv
FNDA:2192559,_ZN9__gnu_cxx13new_allocatorI11AsyncBufferIhEEC2Ev
FNDA:2182007,_ZN9__gnu_cxx13new_allocatorI11AsyncBufferIhEED2Ev
FNDA:273629,_ZN9__gnu_cxx13new_allocatorI11AsyncBufferIhEE8allocateEmPKv
FNDA:273671,_ZN9__gnu_cxx13new_allocatorI11AsyncBufferIhEE10deallocateEPS2_m
FNDA:820691,_ZNK9__gnu_cxx13new_allocatorI11AsyncBufferIhEE8max_sizeEv
FNF:5
FNH:5
DA:79,2192559
DA:86,2182007
DA:99,273629
DA:101,273629
DA:102,0
DA:104,273630
DA:109,273671
DA:110,273671
DA:113,820691
DA:114,820691
LF:10
LH:9
end_of_record
SF:/usr/include/c++/6/ext/string_conversions.h
FN:89,_ZN9__gnu_cxx12__to_xstringINSt7__cxx1112basic_stringIcSt11char_traitsIcESaIcEEEcEET_PFiPT0_mPKS8_P13__va_list_tagEmSB_z
FNDA:0,_ZN9__gnu_cxx12__to_xstringINSt7__cxx1112basic_stringIcSt11char_traitsIcESaIcEEEcEET_PFiPT0_mPKS8_P13__va_list_tagEmSB_z
FNF:1
FNH:0
DA:89,0
DA:96,0
DA:99,0
DA:101,0
DA:103,0
DA:105,0
LF:6
LH:0
end_of_record
SF:/usr/include/c++/6/ext/type_traits.h
FN:152,_ZN9__gnu_cxx17__is_null_pointerIcEEbPT_
FNDA:0,_ZN9__gnu_cxx17__is_null_pointerIcEEbPT_
FNF:1
FNH:0
DA:152,0
DA:153,0
LF:2
LH:0
end_of_record
SF:/usr/include/c++/6/initializer_list
FN:66,_ZNSt16initializer_listIP12napi_value__EC1Ev
FN:71,_ZNKSt16initializer_listIP12napi_value__E4sizeEv
FN:71,_ZNKSt16initializer_listIN4Napi23ClassPropertyDescriptorI9DisruptorEEE4sizeEv
FN:75,_ZNKSt16initializer_listIN4Napi23ClassPropertyDescriptorI9DisruptorEEE5beginEv
FN:75,_ZNKSt16initializer_listIP12napi_value__E5beginEv
FNDA:0,_ZNSt16initializer_listIP12napi_value__EC1Ev
FNDA:253,_ZNKSt16initializer_listIN4Napi23ClassPropertyDescriptorI9DisruptorEEE4sizeEv
FNDA:321169,_ZNKSt16initializer_listIP12napi_value__E4sizeEv
FNDA:253,_ZNKSt16initializer_listIN4Napi23ClassPropertyDescriptorI9DisruptorEEE5beginEv
FNDA:321169,_ZNKSt16initializer_listIP12napi_value__E5beginEv
FNF:5
FNH:4
DA:66,0
DA:67,0
DA:71,321422
DA:75,321422
LF:4
LH:2
end_of_record
SF:/usr/include/c++/6/new
FN:146,_ZnwmPv
FNDA:273585,_ZnwmPv
FNF:1
FNH:1
DA:146,273585
DA:147,273585
LF:2
LH:2
end_of_record
SF:/usr/include/c++/6/tuple
FN:58,_ZNSt10_Head_baseILm1E7CloseFDLb1EEC2Ev
FN:58,_ZNSt10_Head_baseILm1ESt14default_deleteISt6vectorI11AsyncBufferIhESaIS3_EEELb1EEC2Ev
FN:68,_ZNSt10_Head_baseILm1ESt14default_deleteISt6vectorI11AsyncBufferIhESaIS3_EEELb1EEC2IS6_EEOT_
FN:95,_ZNSt10_Head_baseILm1E7CloseFDLb1EE7_M_headERS1_
FN:95,_ZNSt10_Head_baseILm1ESt14default_deleteISt6vectorI11AsyncBufferIhESaIS3_EEELb1EE7_M_headERS7_
FN:104,_ZNSt10_Head_baseILm0EPiLb0EEC2Ev
FN:104,_ZNSt10_Head_baseILm0EPSt6vectorI11AsyncBufferIhESaIS2_EELb0EEC2Ev
FN:114,_ZNSt10_Head_baseILm0EPSt6vectorI11AsyncBufferIhESaIS2_EELb0EEC2IS5_EEOT_
FN:142,_ZNSt10_Head_baseILm0EPSt6vectorI11AsyncBufferIhESaIS2_EELb0EE7_M_headERS6_
FN:142,_ZNSt10_Head_baseILm0EPiLb0EE7_M_headERS1_
FN:145,_ZNSt10_Head_baseILm0EPiLb0EE7_M_headERKS1_
FN:145,_ZNSt10_Head_baseILm0EPSt6vectorI11AsyncBufferIhESaIS2_EELb0EE7_M_headERKS6_
FN:190,_ZNSt11_Tuple_implILm0EJPSt6vectorI11AsyncBufferIhESaIS2_EESt14default_deleteIS4_EEE7_M_headERS8_
FN:190,_ZNSt11_Tuple_implILm0EJPi7CloseFDEE7_M_headERS2_
FN:193,_ZNSt11_Tuple_implILm0EJPSt6vectorI11AsyncBufferIhESaIS2_EESt14default_deleteIS4_EEE7_M_headERKS8_
FN:193,_ZNSt11_Tuple_implILm0EJPi7CloseFDEE7_M_headERKS2_
FN:201,_ZNSt11_Tuple_implILm0EJPSt6vectorI11AsyncBufferIhESaIS2_EESt14default_deleteIS4_EEEC2Ev
FN:201,_ZNSt11_Tuple_implILm0EJPi7CloseFDEEC2Ev
FN:211,_ZNSt11_Tuple_implILm0EJPSt6vectorI11AsyncBufferIhESaIS2_EESt14default_deleteIS4_EEEC2IS5_JS7_EvEEOT_DpOT0_
FN:346,_ZNSt11_Tuple_implILm1EJ7CloseFDEE7_M_headERS1_
FN:346,_ZNSt11_Tuple_implILm1EJSt14default_deleteISt6vectorI11AsyncBufferIhESaIS3_EEEEE7_M_headERS7_
FN:351,_ZNSt11_Tuple_implILm1EJ7CloseFDEEC2Ev
FN:351,_ZNSt11_Tuple_implILm1EJSt14default_deleteISt6vectorI11AsyncBufferIhESaIS3_EEEEEC2Ev
FN:360,_ZNSt11_Tuple_implILm1EJSt14default_deleteISt6vectorI11AsyncBufferIhESaIS3_EEEEEC2IS6_EEOT_
FN:878,_ZNSt5tupleIJPi7CloseFDEEC2IS0_S1_Lb1EEEv
FN:878,_ZNSt5tupleIJPSt6vectorI11AsyncBufferIhESaIS2_EESt14default_deleteIS4_EEEC2IS5_S7_Lb1EEEv
FN:930,_ZNSt5tupleIJPSt6vectorI11AsyncBufferIhESaIS2_EESt14default_deleteIS4_EEEC2IS5_S7_Lb1EEEOT_OT0_
FN:1247,_ZSt12__get_helperILm1E7CloseFDJEERT0_RSt11_Tuple_implIXT_EJS1_DpT1_EE
FN:1247,_ZSt12__get_helperILm1ESt14default_deleteISt6vectorI11AsyncBufferIhESaIS3_EEEJEERT0_RSt11_Tuple_implIXT_EJS7_DpT1_EE
FN:1247,_ZSt12__get_helperILm0EPiJ7CloseFDEERT0_RSt11_Tuple_implIXT_EJS2_DpT1_EE
FN:1247,_ZSt12__get_helperILm0EPSt6vectorI11AsyncBufferIhESaIS2_EEJSt14default_deleteIS4_EEERT0_RSt11_Tuple_implIXT_EJS8_DpT1_EE
FN:1252,_ZSt12__get_helperILm0EPSt6vectorI11AsyncBufferIhESaIS2_EEJSt14default_deleteIS4_EEERKT0_RKSt11_Tuple_implIXT_EJS8_DpT1_EE
FN:1252,_ZSt12__get_helperILm0EPiJ7CloseFDEERKT0_RKSt11_Tuple_implIXT_EJS2_DpT1_EE
FN:1258,_ZSt3getILm0EJPi7CloseFDEERNSt13tuple_elementIXT_ESt5tupleIJDpT0_EEE4typeERS6_
FN:1258,_ZSt3getILm1EJPSt6vectorI11AsyncBufferIhESaIS2_EESt14default_deleteIS4_EEERNSt13tuple_elementIXT_ESt5tupleIJDpT0_EEE4typeERSC_
FN:1258,_ZSt3getILm1EJPi7CloseFDEERNSt13tuple_elementIXT_ESt5tupleIJDpT0_EEE4typeERS6_
FN:1258,_ZSt3getILm0EJPSt6vectorI11AsyncBufferIhESaIS2_EESt14default_deleteIS4_EEERNSt13tuple_elementIXT_ESt5tupleIJDpT0_EEE4typeERSC_
FN:1264,_ZSt3getILm0EJPSt6vectorI11AsyncBufferIhESaIS2_EESt14default_deleteIS4_EEERKNSt13tuple_elementIXT_ESt5tupleIJDpT0_EEE4typeERKSC_
FN:1264,_ZSt3getILm0EJPi7CloseFDEERKNSt13tuple_elementIXT_ESt5tupleIJDpT0_EEE4typeERKS6_
FNDA:2191206,_ZNSt10_Head_baseILm1ESt14default_deleteISt6vectorI11AsyncBufferIhESaIS3_EEELb1EEC2Ev
FNDA:3395,_ZNSt10_Head_baseILm1E7CloseFDLb1EEC2Ev
FNDA:273616,_ZNSt10_Head_baseILm1ESt14default_deleteISt6vectorI11AsyncBufferIhESaIS3_EEELb1EEC2IS6_EEOT_
FNDA:4609855,_ZNSt10_Head_baseILm1ESt14default_deleteISt6vectorI11AsyncBufferIhESaIS3_EEELb1EE7_M_headERS7_
FNDA:3395,_ZNSt10_Head_baseILm1E7CloseFDLb1EE7_M_headERS1_
FNDA:2191281,_ZNSt10_Head_baseILm0EPSt6vectorI11AsyncBufferIhESaIS2_EELb0EEC2Ev
FNDA:3395,_ZNSt10_Head_baseILm0EPiLb0EEC2Ev
FNDA:273626,_ZNSt10_Head_baseILm0EPSt6vectorI11AsyncBufferIhESaIS2_EELb0EEC2IS5_EEOT_
FNDA:7030208,_ZNSt10_Head_baseILm0EPSt6vectorI11AsyncBufferIhESaIS2_EELb0EE7_M_headERS6_
FNDA:6790,_ZNSt10_Head_baseILm0EPiLb0EE7_M_headERS1_
FNDA:3832522,_ZNSt10_Head_baseILm0EPSt6vectorI11AsyncBufferIhESaIS2_EELb0EE7_M_headERKS6_
FNDA:6960,_ZNSt10_Head_baseILm0EPiLb0EE7_M_headERKS1_
FNDA:7029914,_ZNSt11_Tuple_implILm0EJPSt6vectorI11AsyncBufferIhESaIS2_EESt14default_deleteIS4_EEE7_M_headERS8_
FNDA:6790,_ZNSt11_Tuple_implILm0EJPi7CloseFDEE7_M_headERS2_
FNDA:3832724,_ZNSt11_Tuple_implILm0EJPSt6vectorI11AsyncBufferIhESaIS2_EESt14default_deleteIS4_EEE7_M_headERKS8_
FNDA:6960,_ZNSt11_Tuple_implILm0EJPi7CloseFDEE7_M_headERKS2_
FNDA:2191438,_ZNSt11_Tuple_implILm0EJPSt6vectorI11AsyncBufferIhESaIS2_EESt14default_deleteIS4_EEEC2Ev
FNDA:3395,_ZNSt11_Tuple_implILm0EJPi7CloseFDEEC2Ev
FNDA:273596,_ZNSt11_Tuple_implILm0EJPSt6vectorI11AsyncBufferIhESaIS2_EESt14default_deleteIS4_EEEC2IS5_JS7_EvEEOT_DpOT0_
FNDA:4607524,_ZNSt11_Tuple_implILm1EJSt14default_deleteISt6vectorI11AsyncBufferIhESaIS3_EEEEE7_M_headERS7_
FNDA:3395,_ZNSt11_Tuple_implILm1EJ7CloseFDEE7_M_headERS1_
FNDA:2191269,_ZNSt11_Tuple_implILm1EJSt14default_deleteISt6vectorI11AsyncBufferIhESaIS3_EEEEEC2Ev
FNDA:3395,_ZNSt11_Tuple_implILm1EJ7CloseFDEEC2Ev
FNDA:273607,_ZNSt11_Tuple_implILm1EJSt14default_deleteISt6vectorI11AsyncBufferIhESaIS3_EEEEEC2IS6_EEOT_
FNDA:2192484,_ZNSt5tupleIJPSt6vectorI11AsyncBufferIhESaIS2_EESt14default_deleteIS4_EEEC2IS5_S7_Lb1EEEv
FNDA:3395,_ZNSt5tupleIJPi7CloseFDEEC2IS0_S1_Lb1EEEv
FNDA:273582,_ZNSt5tupleIJPSt6vectorI11AsyncBufferIhESaIS2_EESt14default_deleteIS4_EEEC2IS5_S7_Lb1EEEOT_OT0_
FNDA:4606840,_ZSt12__get_helperILm1ESt14default_deleteISt6vectorI11AsyncBufferIhESaIS3_EEEJEERT0_RSt11_Tuple_implIXT_EJS7_DpT1_EE
FNDA:3395,_ZSt12__get_helperILm1E7CloseFDJEERT0_RSt11_Tuple_implIXT_EJS1_DpT1_EE
FNDA:7030761,_ZSt12__get_helperILm0EPSt6vectorI11AsyncBufferIhESaIS2_EEJSt14default_deleteIS4_EEERT0_RSt11_Tuple_implIXT_EJS8_DpT1_EE
FNDA:6790,_ZSt12__get_helperILm0EPiJ7CloseFDEERT0_RSt11_Tuple_implIXT_EJS2_DpT1_EE
FNDA:3832183,_ZSt12__get_helperILm0EPSt6vectorI11AsyncBufferIhESaIS2_EEJSt14default_deleteIS4_EEERKT0_RKSt11_Tuple_implIXT_EJS8_DpT1_EE
FNDA:6960,_ZSt12__get_helperILm0EPiJ7CloseFDEERKT0_RKSt11_Tuple_implIXT_EJS2_DpT1_EE
FNDA:4604467,_ZSt3getILm1EJPSt6vectorI11AsyncBufferIhESaIS2_EESt14default_deleteIS4_EEERNSt13tuple_elementIXT_ESt5tupleIJDpT0_EEE4typeERSC_
FNDA:3395,_ZSt3getILm1EJPi7CloseFDEERNSt13tuple_elementIXT_ESt5tupleIJDpT0_EEE4typeERS6_
FNDA:7031848,_ZSt3getILm0EJPSt6vectorI11AsyncBufferIhESaIS2_EESt14default_deleteIS4_EEERNSt13tuple_elementIXT_ESt5tupleIJDpT0_EEE4typeERSC_
FNDA:6790,_ZSt3getILm0EJPi7CloseFDEERNSt13tuple_elementIXT_ESt5tupleIJDpT0_EEE4typeERS6_
FNDA:3832342,_ZSt3getILm0EJPSt6vectorI11AsyncBufferIhESaIS2_EESt14default_deleteIS4_EEERKNSt13tuple_elementIXT_ESt5tupleIJDpT0_EEE4typeERKSC_
FNDA:6960,_ZSt3getILm0EJPi7CloseFDEERKNSt13tuple_elementIXT_ESt5tupleIJDpT0_EEE4typeERKS6_
FNF:39
FNH:39
DA:58,2194601
DA:59,2194601
DA:68,273616
DA:69,273616
DA:95,4613250
DA:104,2194676
DA:105,2194676
DA:114,273626
DA:115,273626
DA:142,7036998
DA:145,3839482
DA:190,7036704
DA:193,3839684
DA:201,2194833
DA:202,2194833
DA:211,273596
DA:213,273596
DA:346,4610919
DA:351,2194664
DA:352,2194664
DA:360,273607
DA:361,273607
DA:878,2195879
DA:879,2195879
DA:930,273582
DA:931,273582
DA:1247,11647786
DA:1248,11647786
DA:1252,3839143
DA:1253,3839143
DA:1258,11646500
DA:1259,11646500
DA:1264,3839302
DA:1265,3839302
LF:34
LH:34
end_of_record
SF:/home/david/shared-memory-disruptor/src/disruptor.cc
FN:47,_ZN9Disruptor4SpinEv
FN:139,_Z12NullCallbackRKN4Napi12CallbackInfoE
FN:143,_Z11GetCallbackRKN4Napi12CallbackInfoEj
FN:161,_ZN11AsyncBufferIhEC2Ev
FN:167,_ZN11AsyncBufferIhE3NewEN4Napi3EnvEPhm
FN:172,_ZN11AsyncBufferIhE3NewEN4Napi3EnvEm
FN:177,_ZN11AsyncBufferIhE7ToValueEN4Napi3EnvE
FN:193,_ZN11AsyncBufferIhE6LengthEv
FN:199,_ZN11AsyncBufferIhEC2EPhm
FN:210,_ZN10AsyncArrayI11AsyncBufferIhEEC2EOS2_
FN:210,_ZN10AsyncArrayI11AsyncBufferIhEED2Ev
FN:210,_ZN10AsyncArrayI11AsyncBufferIhEEaSEOS2_
FN:213,_ZN10AsyncArrayI11AsyncBufferIhEEC2Ev
FN:218,_ZN10AsyncArrayI11AsyncBufferIhEE3NewEN4Napi3EnvE
FN:223,_ZN10AsyncArrayI11AsyncBufferIhEE3SetEjS1_
FN:233,_ZN10AsyncArrayI11AsyncBufferIhEE7ToValueEN4Napi3EnvE
FN:244,_ZN10AsyncArrayI11AsyncBufferIhEE6LengthEv
FN:256,_ZN12AsyncBooleanC2Ev
FN:261,_ZN12AsyncBoolean3NewEN4Napi3EnvEb
FN:266,_ZN12AsyncBoolean7ToValueEN4Napi3EnvE
FN:271,_ZNK12AsyncBooleancvbEv
FN:277,_ZN12AsyncBooleanC2Eb
FN:289,_Z7ToValueRKN4Napi3EnvEm
FN:294,_Z7ToValueRKN4Napi3EnvERK14AsyncUndefined
FN:300,_ZN20DisruptorAsyncWorkerI10AsyncArrayI11AsyncBufferIhEEm14AsyncUndefinedED0Ev
FN:300,_ZN20DisruptorAsyncWorkerI10AsyncArrayI11AsyncBufferIhEEmmED2Ev
FN:300,_ZN20DisruptorAsyncWorkerI10AsyncArrayI11AsyncBufferIhEEm14AsyncUndefinedED2Ev
FN:300,_ZN20DisruptorAsyncWorkerI10AsyncArrayI11AsyncBufferIhEEmmED0Ev
FN:300,_ZN20DisruptorAsyncWorkerI11AsyncBufferIhEmmED0Ev
FN:300,_ZN20DisruptorAsyncWorkerI12AsyncBoolean14AsyncUndefinedS1_ED2Ev
FN:300,_ZN20DisruptorAsyncWorkerI11AsyncBufferIhEmmED2Ev
FN:300,_ZN20DisruptorAsyncWorkerI12AsyncBoolean14AsyncUndefinedS1_ED0Ev
FN:303,_ZN20DisruptorAsyncWorkerI12AsyncBoolean14AsyncUndefinedS1_EC2EP9DisruptorRKN4Napi8FunctionE
FN:303,_ZN20DisruptorAsyncWorkerI11AsyncBufferIhEmmEC2EP9DisruptorRKN4Napi8FunctionE
FN:303,_ZN20DisruptorAsyncWorkerI10AsyncArrayI11AsyncBufferIhEEm14AsyncUndefinedEC2EP9DisruptorRKN4Napi8FunctionE
FN:303,_ZN20DisruptorAsyncWorkerI10AsyncArrayI11AsyncBufferIhEEmmEC2EP9DisruptorRKN4Napi8FunctionE
FN:315,_ZN20DisruptorAsyncWorkerI10AsyncArrayI11AsyncBufferIhEEm14AsyncUndefinedE4OnOKEv
FN:315,_ZN20DisruptorAsyncWorkerI11AsyncBufferIhEmmE4OnOKEv
FN:315,_ZN20DisruptorAsyncWorkerI10AsyncArrayI11AsyncBufferIhEEmmE4OnOKEv
FN:315,_ZN20DisruptorAsyncWorkerI12AsyncBoolean14AsyncUndefinedS1_E4OnOKEv
FN:348,_ZN7CloseFDclEPi
FN:355,_Z15ThrowErrnoErrorRKN4Napi12CallbackInfoEPKc
FN:366,_ZN9DisruptorC2ERKN4Napi12CallbackInfoE
FN:428,_ZN9DisruptorD2Ev
FN:433,_ZN9Disruptor7ReleaseEv
FN:450,_ZN9Disruptor7ReleaseERKN4Napi12CallbackInfoE
FN:459,_ZN9Disruptor14ConsumeNewSyncIN4Napi5ArrayENS1_6BufferEEET_RKNS1_3EnvEbRm
FN:459,_ZN9Disruptor14ConsumeNewSyncI10AsyncArrayI11AsyncBufferIhEES2_EET_RKN4Napi3EnvEbRm
FN:517,_ZN9Disruptor14ConsumeNewSyncERKN4Napi12CallbackInfoE
FN:523,_ZN21ConsumeNewAsyncWorkerD2Ev
FN:523,_ZN21ConsumeNewAsyncWorkerD0Ev
FN:529,_ZN21ConsumeNewAsyncWorkerC2EP9DisruptorRKN4Napi8FunctionE
FN:540,_ZN21ConsumeNewAsyncWorker7ExecuteEv
FN:547,_ZN21ConsumeNewAsyncWorker5RetryEv
FN:553,_ZN9Disruptor15ConsumeNewAsyncERKN4Napi12CallbackInfoE
FN:558,_ZN9Disruptor10ConsumeNewERKN4Napi12CallbackInfoE
FN:573,_ZN9Disruptor13ConsumeCommitERKN4Napi12CallbackInfoE
FN:578,_ZN9Disruptor13UpdatePendingEmm
FN:584,_ZN9Disruptor13ConsumeCommitEv
FN:600,_ZN9Disruptor16ProduceClaimSyncIN4Napi6BufferEEET_IhERKNS1_3EnvEbRmS8_
FN:600,_ZN9Disruptor16ProduceClaimSyncI11AsyncBufferEET_IhERKN4Napi3EnvEbRmS8_
FN:645,_ZN9Disruptor16ProduceClaimSyncERKN4Napi12CallbackInfoE
FN:652,_ZN23ProduceClaimAsyncWorkerD2Ev
FN:652,_ZN23ProduceClaimAsyncWorkerD0Ev
FN:656,_ZN23ProduceClaimAsyncWorkerC2EP9DisruptorRKN4Napi8FunctionE
FN:666,_ZN23ProduceClaimAsyncWorker7ExecuteEv
FN:674,_ZN23ProduceClaimAsyncWorker5RetryEv
FN:680,_ZN9Disruptor17ProduceClaimAsyncERKN4Napi12CallbackInfoE
FN:685,_ZN9Disruptor12ProduceClaimERKN4Napi12CallbackInfoE
FN:700,_ZN9Disruptor17ProduceGetBuffersI10AsyncArrayI11AsyncBufferIhEES2_EEvRKN4Napi3EnvEmmRT_
FN:700,_ZN9Disruptor17ProduceGetBuffersIN4Napi5ArrayENS1_6BufferEEEvRKNS1_3EnvEmmRT_
FN:732,_ZN9Disruptor20ProduceClaimManySyncIN4Napi5ArrayENS1_6BufferEEET_RKNS1_3EnvEjbRmS8_
FN:732,_ZN9Disruptor20ProduceClaimManySyncI10AsyncArrayI11AsyncBufferIhEES2_EET_RKN4Napi3EnvEjbRmSA_
FN:774,_ZN9Disruptor20ProduceClaimManySyncERKN4Napi12CallbackInfoE
FN:781,_ZN27ProduceClaimManyAsyncWorkerD0Ev
FN:781,_ZN27ProduceClaimManyAsyncWorkerD2Ev
FN:787,_ZN27ProduceClaimManyAsyncWorkerC2EP9DisruptorRKN4Napi8FunctionEj
FN:801,_ZN27ProduceClaimManyAsyncWorker7ExecuteEv
FN:809,_ZN27ProduceClaimManyAsyncWorker5RetryEv
FN:818,_ZN9Disruptor21ProduceClaimManyAsyncERKN4Napi12CallbackInfoEj
FN:824,_ZN9Disruptor21ProduceClaimManyAsyncERKN4Napi12CallbackInfoE
FN:829,_ZN9Disruptor16ProduceClaimManyERKN4Napi12CallbackInfoE
FN:844,_ZN9Disruptor14ProduceRecoverERKN4Napi12CallbackInfoE
FN:863,_ZN9Disruptor17ProduceCommitSyncIN4Napi7BooleanEEET_RKNS1_3EnvEmmb
FN:863,_ZN9Disruptor17ProduceCommitSyncI12AsyncBooleanEET_RKN4Napi3EnvEmmb
FN:883,_ZN9Disruptor13UpdateSeqNextEmm
FN:889,_ZN9Disruptor10GetSeqNextERKN4Napi12CallbackInfoERmS4_
FN:905,_ZN9Disruptor17ProduceCommitSyncERKN4Napi12CallbackInfoE
FN:912,_ZN24ProduceCommitAsyncWorkerD2Ev
FN:912,_ZN24ProduceCommitAsyncWorkerD0Ev
FN:916,_ZN24ProduceCommitAsyncWorkerC2EP9DisruptorRKN4Napi8FunctionEmm
FN:928,_ZN24ProduceCommitAsyncWorker7ExecuteEv
FN:935,_ZN24ProduceCommitAsyncWorker5RetryEv
FN:944,_ZN9Disruptor18ProduceCommitAsyncERKN4Napi12CallbackInfoEmmj
FN:953,_ZN9Disruptor18ProduceCommitAsyncERKN4Napi12CallbackInfoE
FN:960,_ZN9Disruptor13ProduceCommitERKN4Napi12CallbackInfoE
FN:975,_ZN9Disruptor12GetConsumersERKN4Napi12CallbackInfoE
FN:980,_ZN9Disruptor9GetCursorERKN4Napi12CallbackInfoE
FN:985,_ZN9Disruptor7GetNextERKN4Napi12CallbackInfoE
FN:990,_ZN9Disruptor11GetElementsERKN4Napi12CallbackInfoE
FN:995,_ZN9Disruptor11GetConsumerERKN4Napi12CallbackInfoE
FN:1000,_ZN9Disruptor21GetPendingSeqConsumerERKN4Napi12CallbackInfoE
FN:1005,_ZN9Disruptor19GetPendingSeqCursorERKN4Napi12CallbackInfoE
FN:1010,_ZN9Disruptor17GetPendingSeqNextERKN4Napi12CallbackInfoE
FN:1015,_ZN9Disruptor20GetPendingSeqNextEndERKN4Napi12CallbackInfoE
FN:1020,_ZN9Disruptor14GetElementSizeERKN4Napi12CallbackInfoE
FN:1025,_ZN9Disruptor10InitializeEN4Napi3EnvENS0_6ObjectE
FN:1059,_Z10InitializeN4Napi3EnvENS_6ObjectES1_
FN:1064,_register_disruptor
FN:1064,_Z17__napi_InitializeP10napi_env__P12napi_value__S2_Pv
FNDA:3397350,_ZN9Disruptor4SpinEv
FNDA:1,_Z12NullCallbackRKN4Napi12CallbackInfoE
FNDA:321169,_Z11GetCallbackRKN4Napi12CallbackInfoEj
FNDA:608429,_ZN11AsyncBufferIhEC2Ev
FNDA:274375,_ZN11AsyncBufferIhE3NewEN4Napi3EnvEPhm
FNDA:334039,_ZN11AsyncBufferIhE3NewEN4Napi3EnvEm
FNDA:274484,_ZN11AsyncBufferIhE7ToValueEN4Napi3EnvE
FNDA:334844,_ZN11AsyncBufferIhE6LengthEv
FNDA:608389,_ZN11AsyncBufferIhEC2EPhm
FNDA:273479,_ZN10AsyncArrayI11AsyncBufferIhEEC2EOS2_
FNDA:1097393,_ZN10AsyncArrayI11AsyncBufferIhEEaSEOS2_
FNDA:2441653,_ZN10AsyncArrayI11AsyncBufferIhEED2Ev
FNDA:2191857,_ZN10AsyncArrayI11AsyncBufferIhEEC2Ev
FNDA:1097526,_ZN10AsyncArrayI11AsyncBufferIhEE3NewEN4Napi3EnvE
FNDA:273551,_ZN10AsyncArrayI11AsyncBufferIhEE3SetEjS1_
FNDA:273678,_ZN10AsyncArrayI11AsyncBufferIhEE7ToValueEN4Napi3EnvE
FNDA:1097522,_ZN10AsyncArrayI11AsyncBufferIhEE6LengthEv
FNDA:1964943,_ZN12AsyncBooleanC2Ev
FNDA:1964837,_ZN12AsyncBoolean3NewEN4Napi3EnvEb
FNDA:46678,_ZN12AsyncBoolean7ToValueEN4Napi3EnvE
FNDA:1964727,_ZNK12AsyncBooleancvbEv
FNDA:1964808,_ZN12AsyncBooleanC2Eb
FNDA:275319,_Z7ToValueRKN4Napi3EnvEm
FNDA:367019,_Z7ToValueRKN4Napi3EnvERK14AsyncUndefined
FNDA:0,_ZN20DisruptorAsyncWorkerI12AsyncBoolean14AsyncUndefinedS1_ED0Ev
FNDA:1964943,_ZN20DisruptorAsyncWorkerI12AsyncBoolean14AsyncUndefinedS1_ED2Ev
FNDA:0,_ZN20DisruptorAsyncWorkerI10AsyncArrayI11AsyncBufferIhEEmmED0Ev
FNDA:277587,_ZN20DisruptorAsyncWorkerI10AsyncArrayI11AsyncBufferIhEEmmED2Ev
FNDA:0,_ZN20DisruptorAsyncWorkerI11AsyncBufferIhEmmED0Ev
FNDA:334844,_ZN20DisruptorAsyncWorkerI11AsyncBufferIhEmmED2Ev
FNDA:0,_ZN20DisruptorAsyncWorkerI10AsyncArrayI11AsyncBufferIhEEm14AsyncUndefinedED0Ev
FNDA:819976,_ZN20DisruptorAsyncWorkerI10AsyncArrayI11AsyncBufferIhEEm14AsyncUndefinedED2Ev
FNDA:1964943,_ZN20DisruptorAsyncWorkerI12AsyncBoolean14AsyncUndefinedS1_EC2EP9DisruptorRKN4Napi8FunctionE
FNDA:277587,_ZN20DisruptorAsyncWorkerI10AsyncArrayI11AsyncBufferIhEEmmEC2EP9DisruptorRKN4Napi8FunctionE
FNDA:334844,_ZN20DisruptorAsyncWorkerI11AsyncBufferIhEmmEC2EP9DisruptorRKN4Napi8FunctionE
FNDA:819976,_ZN20DisruptorAsyncWorkerI10AsyncArrayI11AsyncBufferIhEEm14AsyncUndefinedEC2EP9DisruptorRKN4Napi8FunctionE
FNDA:819976,_ZN20DisruptorAsyncWorkerI10AsyncArrayI11AsyncBufferIhEEm14AsyncUndefinedE4OnOKEv
FNDA:334844,_ZN20DisruptorAsyncWorkerI11AsyncBufferIhEmmE4OnOKEv
FNDA:277587,_ZN20DisruptorAsyncWorkerI10AsyncArrayI11AsyncBufferIhEEmmE4OnOKEv
FNDA:1964943,_ZN20DisruptorAsyncWorkerI12AsyncBoolean14AsyncUndefinedS1_E4OnOKEv
FNDA:3395,_ZN7CloseFDclEPi
FNDA:3,_Z15ThrowErrnoErrorRKN4Napi12CallbackInfoEPKc
FNDA:3395,_ZN9DisruptorC2ERKN4Napi12CallbackInfoE
FNDA:2640,_ZN9DisruptorD2Ev
FNDA:5780,_ZN9Disruptor7ReleaseEv
FNDA:3140,_ZN9Disruptor7ReleaseERKN4Napi12CallbackInfoE
FNDA:819956,_ZN9Disruptor14ConsumeNewSyncI10AsyncArrayI11AsyncBufferIhEES2_EET_RKN4Napi3EnvEbRm
FNDA:647982,_ZN9Disruptor14ConsumeNewSyncIN4Napi5ArrayENS1_6BufferEEET_RKNS1_3EnvEbRm
FNDA:101906,_ZN9Disruptor14ConsumeNewSyncERKN4Napi12CallbackInfoE
FNDA:819976,_ZN21ConsumeNewAsyncWorkerD0Ev
FNDA:819976,_ZN21ConsumeNewAsyncWorkerD2Ev
FNDA:819976,_ZN21ConsumeNewAsyncWorkerC2EP9DisruptorRKN4Napi8FunctionE
FNDA:819966,_ZN21ConsumeNewAsyncWorker7ExecuteEv
FNDA:546313,_ZN21ConsumeNewAsyncWorker5RetryEv
FNDA:273663,_ZN9Disruptor15ConsumeNewAsyncERKN4Napi12CallbackInfoE
FNDA:546076,_ZN9Disruptor10ConsumeNewERKN4Napi12CallbackInfoE
FNDA:647987,_ZN9Disruptor13ConsumeCommitERKN4Napi12CallbackInfoE
FNDA:647896,_ZN9Disruptor13UpdatePendingEmm
FNDA:2115930,_ZN9Disruptor13ConsumeCommitEv
FNDA:334844,_ZN9Disruptor16ProduceClaimSyncI11AsyncBufferEET_IhERKN4Napi3EnvEbRmS8_
FNDA:286070,_ZN9Disruptor16ProduceClaimSyncIN4Napi6BufferEEET_IhERKNS1_3EnvEbRmS8_
FNDA:234181,_ZN9Disruptor16ProduceClaimSyncERKN4Napi12CallbackInfoE
FNDA:334844,_ZN23ProduceClaimAsyncWorkerD0Ev
FNDA:334844,_ZN23ProduceClaimAsyncWorkerD2Ev
FNDA:334844,_ZN23ProduceClaimAsyncWorkerC2EP9DisruptorRKN4Napi8FunctionE
FNDA:334844,_ZN23ProduceClaimAsyncWorker7ExecuteEv
FNDA:334031,_ZN23ProduceClaimAsyncWorker5RetryEv
FNDA:813,_ZN9Disruptor17ProduceClaimAsyncERKN4Napi12CallbackInfoE
FNDA:51889,_ZN9Disruptor12ProduceClaimERKN4Napi12CallbackInfoE
FNDA:9,_ZN9Disruptor17ProduceGetBuffersI10AsyncArrayI11AsyncBufferIhEES2_EEvRKN4Napi3EnvEmmRT_
FNDA:32,_ZN9Disruptor17ProduceGetBuffersIN4Napi5ArrayENS1_6BufferEEEvRKNS1_3EnvEmmRT_
FNDA:277587,_ZN9Disruptor20ProduceClaimManySyncI10AsyncArrayI11AsyncBufferIhEES2_EET_RKN4Napi3EnvEjbRmSA_
FNDA:24,_ZN9Disruptor20ProduceClaimManySyncIN4Napi5ArrayENS1_6BufferEEET_RKNS1_3EnvEjbRmS8_
FNDA:11,_ZN9Disruptor20ProduceClaimManySyncERKN4Napi12CallbackInfoE
FNDA:277587,_ZN27ProduceClaimManyAsyncWorkerD0Ev
FNDA:277587,_ZN27ProduceClaimManyAsyncWorkerD2Ev
FNDA:277587,_ZN27ProduceClaimManyAsyncWorkerC2EP9DisruptorRKN4Napi8FunctionEj
FNDA:277587,_ZN27ProduceClaimManyAsyncWorker7ExecuteEv
FNDA:277572,_ZN27ProduceClaimManyAsyncWorker5RetryEv
FNDA:15,_ZN9Disruptor21ProduceClaimManyAsyncERKN4Napi12CallbackInfoEj
FNDA:11,_ZN9Disruptor21ProduceClaimManyAsyncERKN4Napi12CallbackInfoE
FNDA:13,_ZN9Disruptor16ProduceClaimManyERKN4Napi12CallbackInfoE
FNDA:57,_ZN9Disruptor14ProduceRecoverERKN4Napi12CallbackInfoE
FNDA:1964246,_ZN9Disruptor17ProduceCommitSyncI12AsyncBooleanEET_RKN4Napi3EnvEmmb
FNDA:286076,_ZN9Disruptor17ProduceCommitSyncIN4Napi7BooleanEEET_RKNS1_3EnvEmmb
FNDA:898540,_ZN9Disruptor13UpdateSeqNextEmm
FNDA:286887,_ZN9Disruptor10GetSeqNextERKN4Napi12CallbackInfoERmS4_
FNDA:234184,_ZN9Disruptor17ProduceCommitSyncERKN4Napi12CallbackInfoE
FNDA:1964943,_ZN24ProduceCommitAsyncWorkerD0Ev
FNDA:1964943,_ZN24ProduceCommitAsyncWorkerD2Ev
FNDA:1964943,_ZN24ProduceCommitAsyncWorkerC2EP9DisruptorRKN4Napi8FunctionEmm
FNDA:1964333,_ZN24ProduceCommitAsyncWorker7ExecuteEv
FNDA:1918265,_ZN24ProduceCommitAsyncWorker5RetryEv
FNDA:46678,_ZN9Disruptor18ProduceCommitAsyncERKN4Napi12CallbackInfoEmmj
FNDA:811,_ZN9Disruptor18ProduceCommitAsyncERKN4Napi12CallbackInfoE
FNDA:51892,_ZN9Disruptor13ProduceCommitERKN4Napi12CallbackInfoE
FNDA:9,_ZN9Disruptor12GetConsumersERKN4Napi12CallbackInfoE
FNDA:154,_ZN9Disruptor9GetCursorERKN4Napi12CallbackInfoE
FNDA:154,_ZN9Disruptor7GetNextERKN4Napi12CallbackInfoE
FNDA:1167,_ZN9Disruptor11GetElementsERKN4Napi12CallbackInfoE
FNDA:154,_ZN9Disruptor11GetConsumerERKN4Napi12CallbackInfoE
FNDA:546142,_ZN9Disruptor21GetPendingSeqConsumerERKN4Napi12CallbackInfoE
FNDA:54,_ZN9Disruptor19GetPendingSeqCursorERKN4Napi12CallbackInfoE
FNDA:52748,_ZN9Disruptor17GetPendingSeqNextERKN4Napi12CallbackInfoE
FNDA:52748,_ZN9Disruptor20GetPendingSeqNextEndERKN4Napi12CallbackInfoE
FNDA:51,_ZN9Disruptor14GetElementSizeERKN4Napi12CallbackInfoE
FNDA:253,_ZN9Disruptor10InitializeEN4Napi3EnvENS0_6ObjectE
FNDA:253,_Z10InitializeN4Napi3EnvENS_6ObjectES1_
FNDA:253,_register_disruptor
FNDA:253,_Z17__napi_InitializeP10napi_env__P12napi_value__S2_Pv
FNF:110
FNH:106
DA:47,3397350
DA:49,3397350
DA:139,1
DA:141,1
DA:143,321169
DA:145,321169
DA:147,321169
DA:148,321169
DA:150,321168
DA:154,1
DA:161,608429
DA:163,608429
DA:165,608429
DA:167,274375
DA:169,274375
DA:172,334039
DA:174,334039
DA:177,274484
DA:179,274484
DA:181,274484
DA:183,274476
DA:187,8
DA:190,274484
DA:193,334844
DA:195,334844
DA:199,608389
DA:201,608389
DA:203,608389
DA:210,3812525
DA:213,2191857
DA:214,2191857
DA:216,2191767
DA:218,1097526
DA:220,1097526
DA:223,273551
DA:225,273551
DA:227,273643
DA:230,273619
DA:231,273652
DA:233,273678
DA:235,273678
DA:236,273678
DA:237,547349
DA:239,273671
DA:241,273678
DA:244,1097522
DA:246,1097522
DA:256,1964943
DA:257,1964943
DA:259,1964943
DA:261,1964837
DA:263,1964837
DA:266,46678
DA:268,46678
DA:271,1964727
DA:273,1964727
DA:277,1964808
DA:278,1964808
DA:280,1964808
DA:289,275319
DA:291,275319
DA:294,367019
DA:296,367019
DA:300,3397350
DA:303,3397350
DA:308,3397350
DA:310,3397350
DA:315,3397350
DA:317,3397350
DA:319,3076181
DA:322,321169
DA:324,1605845
DA:325,321169
DA:328,642338
DA:330,642338
DA:331,642338
DA:348,3395
DA:350,3395
DA:351,3395
DA:352,3395
DA:355,3
DA:357,3
DA:358,3
DA:359,3
DA:362,6
DA:363,9
DA:366,3395
DA:368,3398
DA:371,3395
DA:372,3395
DA:373,3395
DA:374,3395
DA:375,3395
DA:376,3395
DA:377,3395
DA:381,6790
DA:383,6790
DA:384,3395
DA:386,3
DA:393,6784
DA:394,3392
DA:398,3392
DA:404,3392
DA:407,3392
DA:409,3392
DA:415,3392
DA:416,3392
DA:417,3392
DA:418,3392
DA:419,3392
DA:421,3392
DA:422,3392
DA:424,3392
DA:425,3392
DA:426,3392
DA:428,5280
DA:430,2640
DA:431,2640
DA:433,5780
DA:435,5780
DA:437,3140
DA:439,3140
DA:444,3140
DA:447,5780
DA:450,3140
DA:452,3140
DA:456,3140
DA:459,1467938
DA:466,1467938
DA:468,606557608
DA:470,607205588
DA:471,607205588
DA:472,607205588
DA:473,607205588
DA:475,607205588
DA:477,921045
DA:479,1294688
DA:481,647344
DA:482,647344
DA:484,647380
DA:485,647337
DA:486,647337
DA:489,606558159
DA:491,555
DA:493,1102
DA:495,551
DA:496,551
DA:498,551
DA:500,396
DA:503,396
DA:506,551
DA:507,551
DA:508,551
DA:513,819964
DA:514,819964
DA:517,101906
DA:520,101906
DA:523,1639952
DA:529,819976
DA:530,819976
DA:534,819976
DA:536,819976
DA:537,819976
DA:540,819966
DA:543,819966
DA:544,819937
DA:545,819955
DA:547,546313
DA:549,546313
DA:550,546313
DA:553,273663
DA:555,273663
DA:556,273663
DA:558,546076
DA:562,546076
DA:564,546076
DA:566,272425
DA:569,273651
DA:570,273651
DA:573,647987
DA:575,647987
DA:578,647896
DA:580,647896
DA:581,647896
DA:582,647896
DA:584,2115930
DA:586,2115930
DA:588,2115930
DA:590,647987
DA:592,647987
DA:593,647987
DA:596,2115930
DA:600,32006913
DA:605,31720047
DA:607,32006913
DA:609,32006913
DA:611,38588639
DA:613,38286668
DA:615,38286668
DA:617,31704942
DA:618,31704942
DA:622,32308884
DA:623,301971
DA:625,573732
DA:627,286866
DA:628,573732
DA:630,286866
DA:631,286866
DA:632,286866
DA:634,286866
DA:639,334048
DA:640,334048
DA:641,334048
DA:642,334048
DA:645,234181
DA:648,468362
DA:649,702543
DA:652,669688
DA:656,334844
DA:657,334844
DA:659,334844
DA:661,334844
DA:662,334844
DA:663,334844
DA:666,334844
DA:669,334844
DA:670,669688
DA:671,334844
DA:672,334844
DA:674,334031
DA:676,334031
DA:677,334031
DA:680,813
DA:682,813
DA:683,813
DA:685,51889
DA:689,51889
DA:690,51889
DA:692,51884
DA:695,5
DA:696,5
DA:700,41
DA:705,41
DA:706,41
DA:708,41
DA:710,6
DA:712,3
DA:713,3
DA:715,3
DA:718,3
DA:722,76
DA:724,38
DA:725,38
DA:728,41
DA:729,41
DA:732,277611
DA:738,277585
DA:740,277611
DA:741,277611
DA:743,277611
DA:745,277637
DA:747,277611
DA:749,277611
DA:751,277585
DA:752,277585
DA:756,277637
DA:757,26
DA:759,35
DA:760,26
DA:761,26
DA:762,26
DA:763,26
DA:768,277585
DA:769,277585
DA:770,277585
DA:771,277585
DA:774,11
DA:777,22
DA:778,33
DA:781,555174
DA:787,277587
DA:789,277587
DA:794,277587
DA:796,277587
DA:797,277587
DA:798,277587
DA:801,277587
DA:804,832761
DA:805,832761
DA:806,277587
DA:807,277587
DA:809,277572
DA:811,277572
DA:812,277572
DA:818,15
DA:821,15
DA:822,15
DA:824,11
DA:826,11
DA:827,11
DA:829,13
DA:831,13
DA:834,13
DA:835,13
DA:837,9
DA:840,4
DA:841,4
DA:844,57
DA:846,57
DA:847,57
DA:849,57
DA:851,105
DA:852,87
DA:853,30
DA:856,15
DA:859,57
DA:863,2250322
DA:868,2250322
DA:870,937886673
DA:872,938173551
DA:874,286878
DA:880,1963444
DA:883,898540
DA:885,898540
DA:886,898540
DA:887,898540
DA:889,286887
DA:893,286887
DA:895,10
DA:896,10
DA:897,10
DA:900,286877
DA:901,286877
DA:902,286877
DA:905,234184
DA:908,234184
DA:909,234184
DA:912,3929886
DA:916,1964943
DA:919,1964943
DA:923,1964943
DA:925,1964943
DA:928,1964333
DA:931,1964333
DA:932,1964699
DA:933,1964783
DA:935,1918265
DA:937,1918265
DA:938,1918265
DA:944,46678
DA:950,46678
DA:951,46678
DA:953,811
DA:956,811
DA:957,811
DA:958,811
DA:960,51892
DA:963,51892
DA:965,51892
DA:966,51892
DA:968,6025
DA:971,45867
DA:972,45867
DA:975,9
DA:977,9
DA:980,154
DA:982,154
DA:985,154
DA:987,154
DA:990,1167
DA:992,1167
DA:995,154
DA:997,154
DA:1000,546142
DA:1002,546142
DA:1005,54
DA:1007,54
DA:1010,52748
DA:1012,52748
DA:1015,52748
DA:1017,52748
DA:1020,51
DA:1022,51
DA:1025,253
DA:1027,506
DA:1029,253
DA:1030,253
DA:1031,253
DA:1032,253
DA:1033,253
DA:1034,253
DA:1035,253
DA:1036,253
DA:1037,253
DA:1038,253
DA:1039,253
DA:1040,253
DA:1041,253
DA:1042,253
DA:1043,253
DA:1046,253
DA:1047,253
DA:1048,253
DA:1049,253
DA:1050,253
DA:1051,253
DA:1052,253
DA:1053,253
DA:1054,253
DA:1055,253
DA:1056,6831
DA:1057,253
DA:1059,253
DA:1061,253
DA:1062,253
DA:1064,506
LF:416
LH:416
end_of_record
