TN:
SF:/home/david/shared-memory-disruptor/src/disruptor.cc
FN:52,_ZN9Disruptor4SpinEv
FN:160,_Z11GetCallbackRKN4Napi12CallbackInfoEj
FN:179,_ZN10SyncBuffer3NewEN4Napi3EnvEP9Disruptormm
FN:198,_ZN11AsyncBufferC2Ev
FN:202,_ZN11AsyncBuffer3NewEN4Napi3EnvEP9Disruptormm
FN:207,_ZN11AsyncBuffer7ToValueEN4Napi3EnvEP9Disruptor
FN:212,_ZN11AsyncBuffer6LengthEv
FN:218,_ZN11AsyncBufferC2Emmj
FN:234,_ZN10AsyncArrayI11AsyncBufferEC2Ev
FN:239,_ZN10AsyncArrayI11AsyncBufferE3NewEN4Napi3EnvE
FN:244,_ZN10AsyncArrayI11AsyncBufferE3SetEjOS0_
FN:254,_ZN10AsyncArrayI11AsyncBufferE7ToValueEN4Napi3EnvEP9Disruptor
FN:265,_ZN10AsyncArrayI11AsyncBufferE6LengthEv
FN:277,_ZN12AsyncBooleanC2Ev
FN:282,_ZN12AsyncBoolean3NewEN4Napi3EnvEb
FN:287,_ZN12AsyncBoolean7ToValueEN4Napi3EnvEP9Disruptor
FN:292,_ZNK12AsyncBooleancvbEv
FN:298,_ZN12AsyncBooleanC2Eb
FN:310,_Z7ToValueRKN4Napi3EnvEm
FN:315,_Z7ToValueRKN4Napi3EnvERK14AsyncUndefined
FN:324,_ZN20DisruptorAsyncWorkerI12AsyncBoolean14AsyncUndefinedS1_EC2EP9DisruptorRKN4Napi8FunctionE
FN:324,_ZN20DisruptorAsyncWorkerI10AsyncArrayI11AsyncBufferEmmEC2EP9DisruptorRKN4Napi8FunctionE
FN:324,_ZN20DisruptorAsyncWorkerI10AsyncArrayI11AsyncBufferEm14AsyncUndefinedEC2EP9DisruptorRKN4Napi8FunctionE
FN:324,_ZN20DisruptorAsyncWorkerI11AsyncBuffermmEC2EP9DisruptorRKN4Napi8FunctionE
FN:336,_ZN20DisruptorAsyncWorkerI10AsyncArrayI11AsyncBufferEmmE4OnOKEv
FN:336,_ZN20DisruptorAsyncWorkerI12AsyncBoolean14AsyncUndefinedS1_E4OnOKEv
FN:336,_ZN20DisruptorAsyncWorkerI11AsyncBuffermmE4OnOKEv
FN:336,_ZN20DisruptorAsyncWorkerI10AsyncArrayI11AsyncBufferEm14AsyncUndefinedE4OnOKEv
FN:369,_ZN7CloseFDclEPi
FN:376,_ZN9Disruptor15ThrowErrnoErrorERKN4Napi12CallbackInfoEPKc
FN:395,_ZN9DisruptorC2ERKN4Napi12CallbackInfoE
FN:540,_ZZN9DisruptorC4ERKN4Napi12CallbackInfoEENKUlNS0_3EnvEPhE_clES4_S5_
FN:567,_ZN9DisruptorD0Ev
FN:567,_ZN9DisruptorD2Ev
FN:572,_ZN9Disruptor7ReleaseEv
FN:594,_ZN9Disruptor7ReleaseERKN4Napi12CallbackInfoE
FN:603,_ZN9Disruptor14ConsumeNewSyncIN4Napi5ArrayE10SyncBufferEET_RKNS1_3EnvEbRm
FN:603,_ZN9Disruptor14ConsumeNewSyncI10AsyncArrayI11AsyncBufferES2_EET_RKN4Napi3EnvEbRm
FN:647,_ZN9Disruptor14ConsumeNewSyncERKN4Napi12CallbackInfoE
FN:659,_ZN21ConsumeNewAsyncWorkerC2EP9DisruptorRKN4Napi8FunctionE
FN:670,_ZN21ConsumeNewAsyncWorker7ExecuteEv
FN:677,_ZN21ConsumeNewAsyncWorker5RetryEv
FN:683,_ZN9Disruptor15ConsumeNewAsyncERKN4Napi12CallbackInfoE
FN:688,_ZN9Disruptor10ConsumeNewERKN4Napi12CallbackInfoE
FN:703,_ZN9Disruptor13ConsumeCommitERKN4Napi12CallbackInfoE
FN:708,_ZN9Disruptor13UpdatePendingEmm
FN:714,_ZN9Disruptor13ConsumeCommitEv
FN:730,_ZN9Disruptor16ProduceClaimSyncI10SyncBufferEENT_6BufferERKN4Napi3EnvEbRmS8_
FN:730,_ZN9Disruptor16ProduceClaimSyncI11AsyncBufferEENT_6BufferERKN4Napi3EnvEbRmS8_
FN:771,_ZN9Disruptor16ProduceClaimSyncERKN4Napi12CallbackInfoE
FN:781,_ZN23ProduceClaimAsyncWorkerC2EP9DisruptorRKN4Napi8FunctionE
FN:791,_ZN23ProduceClaimAsyncWorker7ExecuteEv
FN:799,_ZN23ProduceClaimAsyncWorker5RetryEv
FN:805,_ZN9Disruptor17ProduceClaimAsyncERKN4Napi12CallbackInfoE
FN:810,_ZN9Disruptor12ProduceClaimERKN4Napi12CallbackInfoE
FN:825,_ZN9Disruptor17ProduceGetBuffersI10AsyncArrayI11AsyncBufferES2_EEvRKN4Napi3EnvEmmRT_
FN:825,_ZN9Disruptor17ProduceGetBuffersIN4Napi5ArrayE10SyncBufferEEvRKNS1_3EnvEmmRT_
FN:847,_ZN9Disruptor20ProduceClaimManySyncIN4Napi5ArrayE10SyncBufferEET_RKNS1_3EnvEjbRmS8_
FN:847,_ZN9Disruptor20ProduceClaimManySyncI10AsyncArrayI11AsyncBufferES2_EET_RKN4Napi3EnvEjbRmS9_
FN:889,_ZN9Disruptor20ProduceClaimManySyncERKN4Napi12CallbackInfoE
FN:902,_ZN27ProduceClaimManyAsyncWorkerC2EP9DisruptorRKN4Napi8FunctionEj
FN:916,_ZN27ProduceClaimManyAsyncWorker7ExecuteEv
FN:924,_ZN27ProduceClaimManyAsyncWorker5RetryEv
FN:933,_ZN9Disruptor21ProduceClaimManyAsyncERKN4Napi12CallbackInfoEj
FN:939,_ZN9Disruptor21ProduceClaimManyAsyncERKN4Napi12CallbackInfoE
FN:944,_ZN9Disruptor16ProduceClaimManyERKN4Napi12CallbackInfoE
FN:959,_ZN9Disruptor14ProduceRecoverERKN4Napi12CallbackInfoE
FN:978,_ZN9Disruptor17ProduceCommitSyncIN4Napi7BooleanEEET_RKNS1_3EnvEmmb
FN:978,_ZN9Disruptor17ProduceCommitSyncI12AsyncBooleanEET_RKN4Napi3EnvEmmb
FN:998,_ZN9Disruptor13UpdateSeqNextEmm
FN:1004,_ZN9Disruptor10GetSeqNextERKN4Napi12CallbackInfoERmS4_
FN:1020,_ZN9Disruptor17ProduceCommitSyncERKN4Napi12CallbackInfoE
FN:1031,_ZN24ProduceCommitAsyncWorkerC2EP9DisruptorRKN4Napi8FunctionEmm
FN:1043,_ZN24ProduceCommitAsyncWorker7ExecuteEv
FN:1050,_ZN24ProduceCommitAsyncWorker5RetryEv
FN:1059,_ZN9Disruptor18ProduceCommitAsyncERKN4Napi12CallbackInfoEmmj
FN:1068,_ZN9Disruptor18ProduceCommitAsyncERKN4Napi12CallbackInfoE
FN:1075,_ZN9Disruptor13ProduceCommitERKN4Napi12CallbackInfoE
FN:1090,_ZN9Disruptor12GetConsumersERKN4Napi12CallbackInfoE
FN:1095,_ZN9Disruptor9GetCursorERKN4Napi12CallbackInfoE
FN:1100,_ZN9Disruptor7GetNextERKN4Napi12CallbackInfoE
FN:1105,_ZN9Disruptor11GetElementsERKN4Napi12CallbackInfoE
FN:1110,_ZN9Disruptor11GetConsumerERKN4Napi12CallbackInfoE
FN:1115,_ZN9Disruptor21GetPendingSeqConsumerERKN4Napi12CallbackInfoE
FN:1120,_ZN9Disruptor19GetPendingSeqCursorERKN4Napi12CallbackInfoE
FN:1125,_ZN9Disruptor17GetPendingSeqNextERKN4Napi12CallbackInfoE
FN:1130,_ZN9Disruptor20GetPendingSeqNextEndERKN4Napi12CallbackInfoE
FN:1135,_ZN9Disruptor14GetElementSizeERKN4Napi12CallbackInfoE
FN:1140,_ZN9Disruptor10InitializeEN4Napi3EnvENS0_6ObjectE
FN:1183,_Z10InitializeN4Napi3EnvENS_6ObjectE
FN:1188,_register_disruptor
FN:1188,_ZL17__napi_InitializeP10napi_env__P12napi_value__
FNDA:2656986,_ZN20DisruptorAsyncWorkerI12AsyncBoolean14AsyncUndefinedS1_EC2EP9DisruptorRKN4Napi8FunctionE
FNDA:2656986,_ZN24ProduceCommitAsyncWorkerC2EP9DisruptorRKN4Napi8FunctionEmm
FNDA:1140724,_ZN9Disruptor14ConsumeNewSyncIN4Napi5ArrayE10SyncBufferEET_RKNS1_3EnvEbRm
FNDA:3612,_ZZN9DisruptorC4ERKN4Napi12CallbackInfoEENKUlNS0_3EnvEPhE_clES4_S5_
FNDA:538480,_ZN11AsyncBufferC2Ev
FNDA:197,_ZN9Disruptor9GetCursorERKN4Napi12CallbackInfoE
FNDA:20971,_ZN27ProduceClaimManyAsyncWorker7ExecuteEv
FNDA:20971,_ZN20DisruptorAsyncWorkerI10AsyncArrayI11AsyncBufferEmmE4OnOKEv
FNDA:4,_ZN9Disruptor15ThrowErrnoErrorERKN4Napi12CallbackInfoEPKc
FNDA:229170,_ZN9Disruptor18ProduceCommitAsyncERKN4Napi12CallbackInfoEmmj
FNDA:64,_ZN9Disruptor14GetElementSizeERKN4Napi12CallbackInfoE
FNDA:519447,_ZN9Disruptor13ProduceCommitERKN4Napi12CallbackInfoE
FNDA:569061,_ZN9Disruptor13UpdateSeqNextEmm
FNDA:20971,_ZN20DisruptorAsyncWorkerI10AsyncArrayI11AsyncBufferEmmEC2EP9DisruptorRKN4Napi8FunctionE
FNDA:1140727,_ZN9Disruptor13ConsumeCommitERKN4Napi12CallbackInfoE
FNDA:519441,_ZN9Disruptor12ProduceClaimERKN4Napi12CallbackInfoE
FNDA:229170,_ZN12AsyncBoolean7ToValueEN4Napi3EnvEP9Disruptor
FNDA:197,_ZN9Disruptor7GetNextERKN4Napi12CallbackInfoE
FNDA:12,_ZN9Disruptor14ConsumeNewSyncERKN4Napi12CallbackInfoE
FNDA:2656986,_ZN20DisruptorAsyncWorkerI12AsyncBoolean14AsyncUndefinedS1_E4OnOKEv
FNDA:9,_ZN9Disruptor17ProduceGetBuffersI10AsyncArrayI11AsyncBufferES2_EEvRKN4Napi3EnvEmmRT_
FNDA:1152731,_ZN10AsyncArrayI11AsyncBufferE6LengthEv
FNDA:1667909,_ZN10SyncBuffer3NewEN4Napi3EnvEP9Disruptormm
FNDA:27787,_ZN23ProduceClaimAsyncWorker7ExecuteEv
FNDA:72,_ZN9Disruptor19GetPendingSeqCursorERKN4Napi12CallbackInfoE
FNDA:12,_ZN9Disruptor12GetConsumersERKN4Napi12CallbackInfoE
FNDA:27787,_ZN20DisruptorAsyncWorkerI11AsyncBuffermmE4OnOKEv
FNDA:520257,_ZN9Disruptor17ProduceCommitSyncIN4Napi7BooleanEEET_RKNS1_3EnvEmmb
FNDA:510435,_ZN9Disruptor15ConsumeNewAsyncERKN4Napi12CallbackInfoE
FNDA:45,_ZN9Disruptor17ProduceGetBuffersIN4Napi5ArrayE10SyncBufferEEvRKNS1_3EnvEmmRT_
FNDA:1131760,_ZN20DisruptorAsyncWorkerI10AsyncArrayI11AsyncBufferEm14AsyncUndefinedEC2EP9DisruptorRKN4Napi8FunctionE
FNDA:1131760,_ZN9Disruptor14ConsumeNewSyncI10AsyncArrayI11AsyncBufferES2_EET_RKN4Napi3EnvEbRm
FNDA:253,_register_disruptor
FNDA:520248,_ZN9Disruptor16ProduceClaimSyncI10SyncBufferEENT_6BufferERKN4Napi3EnvEbRmS8_
FNDA:745910,_Z11GetCallbackRKN4Napi12CallbackInfoEj
FNDA:3716,_ZN9DisruptorC2ERKN4Napi12CallbackInfoE
FNDA:520319,_ZN9Disruptor20GetPendingSeqNextEndERKN4Napi12CallbackInfoE
FNDA:35,_ZN9Disruptor20ProduceClaimManySyncIN4Napi5ArrayE10SyncBufferEET_RKNS1_3EnvEjbRmS8_
FNDA:27787,_ZN11AsyncBuffer6LengthEv
FNDA:505,_ZL17__napi_InitializeP10napi_env__P12napi_value__
FNDA:516980,_ZN11AsyncBuffer7ToValueEN4Napi3EnvEP9Disruptor
FNDA:1140728,_ZN9Disruptor13UpdatePendingEmm
FNDA:1076960,_ZN11AsyncBufferC2Emmj
FNDA:520319,_ZN9Disruptor17GetPendingSeqNextERKN4Napi12CallbackInfoE
FNDA:807,_ZN9Disruptor16ProduceClaimSyncERKN4Napi12CallbackInfoE
FNDA:510693,_ZN10AsyncArrayI11AsyncBufferE3SetEjOS0_
FNDA:24,_ZN9Disruptor16ProduceClaimManyERKN4Napi12CallbackInfoE
FNDA:3208,_ZN9Disruptor7ReleaseERKN4Napi12CallbackInfoE
FNDA:2656986,_ZN9Disruptor17ProduceCommitSyncI12AsyncBooleanEET_RKN4Napi3EnvEmmb
FNDA:21500,_ZN23ProduceClaimAsyncWorker5RetryEv
FNDA:20971,_ZN9Disruptor20ProduceClaimManySyncI10AsyncArrayI11AsyncBufferES2_EET_RKN4Napi3EnvEjbRmS9_
FNDA:197,_ZN9Disruptor11GetConsumerERKN4Napi12CallbackInfoE
FNDA:3712,_ZN7CloseFDclEPi
FNDA:1140796,_ZN9Disruptor21GetPendingSeqConsumerERKN4Napi12CallbackInfoE
FNDA:6287,_ZN9Disruptor17ProduceClaimAsyncERKN4Napi12CallbackInfoE
FNDA:2305462,_ZN10AsyncArrayI11AsyncBufferEC2Ev
FNDA:1140712,_ZN9Disruptor10ConsumeNewERKN4Napi12CallbackInfoE
FNDA:1152731,_ZN10AsyncArrayI11AsyncBufferE3NewEN4Napi3EnvE
FNDA:2656986,_ZN24ProduceCommitAsyncWorker7ExecuteEv
FNDA:968775,_Z7ToValueRKN4Napi3EnvERK14AsyncUndefined
FNDA:3612,_ZN9DisruptorD0Ev
FNDA:2427816,_ZN24ProduceCommitAsyncWorker5RetryEv
FNDA:76,_ZN9Disruptor14ProduceRecoverERKN4Napi12CallbackInfoE
FNDA:6820,_ZN9Disruptor7ReleaseEv
FNDA:538480,_ZN11AsyncBuffer3NewEN4Napi3EnvEP9Disruptormm
FNDA:2656986,_ZN12AsyncBoolean3NewEN4Napi3EnvEb
FNDA:2656986,_ZN12AsyncBooleanC2Ev
FNDA:27787,_ZN9Disruptor16ProduceClaimSyncI11AsyncBufferEENT_6BufferERKN4Napi3EnvEbRmS8_
FNDA:1556,_ZN9Disruptor11GetElementsERKN4Napi12CallbackInfoE
FNDA:1131760,_ZN21ConsumeNewAsyncWorker7ExecuteEv
FNDA:1131760,_ZN21ConsumeNewAsyncWorkerC2EP9DisruptorRKN4Napi8FunctionE
FNDA:3413211,_ZN9Disruptor13ConsumeCommitEv
FNDA:505,_ZN9Disruptor10InitializeEN4Napi3EnvENS0_6ObjectE
FNDA:523045,_Z7ToValueRKN4Napi3EnvEm
FNDA:18,_ZN9Disruptor21ProduceClaimManyAsyncERKN4Napi12CallbackInfoEj
FNDA:11,_ZN9Disruptor21ProduceClaimManyAsyncERKN4Napi12CallbackInfoE
FNDA:621325,_ZN21ConsumeNewAsyncWorker5RetryEv
FNDA:27787,_ZN23ProduceClaimAsyncWorkerC2EP9DisruptorRKN4Napi8FunctionE
FNDA:20971,_ZN27ProduceClaimManyAsyncWorkerC2EP9DisruptorRKN4Napi8FunctionEj
FNDA:521067,_ZN9Disruptor10GetSeqNextERKN4Napi12CallbackInfoERmS4_
FNDA:810,_ZN9Disruptor17ProduceCommitSyncERKN4Napi12CallbackInfoE
FNDA:2656986,_ZNK12AsyncBooleancvbEv
FNDA:3837504,_ZN9Disruptor4SpinEv
FNDA:810,_ZN9Disruptor18ProduceCommitAsyncERKN4Napi12CallbackInfoE
FNDA:20953,_ZN27ProduceClaimManyAsyncWorker5RetryEv
FNDA:505,_Z10InitializeN4Napi3EnvENS_6ObjectE
FNDA:3612,_ZN9DisruptorD2Ev
FNDA:510453,_ZN10AsyncArrayI11AsyncBufferE7ToValueEN4Napi3EnvEP9Disruptor
FNDA:2656986,_ZN12AsyncBooleanC2Eb
FNDA:27787,_ZN20DisruptorAsyncWorkerI11AsyncBuffermmEC2EP9DisruptorRKN4Napi8FunctionE
FNDA:1131760,_ZN20DisruptorAsyncWorkerI10AsyncArrayI11AsyncBufferEm14AsyncUndefinedE4OnOKEv
FNDA:11,_ZN9Disruptor20ProduceClaimManySyncERKN4Napi12CallbackInfoE
FNF:92
FNH:92
DA:52,3837504
DA:54,3837504
DA:160,745910
DA:162,745910
DA:164,745910
DA:165,745910
DA:167,745910
DA:179,1667909
DA:182,5003727
DA:187,1667909
DA:188,3335818
DA:189,3335818
DA:198,538480
DA:200,538480
DA:202,538480
DA:204,538480
DA:207,516980
DA:209,516980
DA:212,27787
DA:214,27787
DA:218,1076960
DA:219,1076960
DA:220,1076960
DA:221,1076960
DA:223,1076960
DA:234,2305462
DA:235,2305462
DA:237,2305462
DA:239,1152731
DA:241,1152731
DA:244,510693
DA:246,510693
DA:248,510693
DA:251,510693
DA:252,510693
DA:254,510453
DA:256,510453
DA:257,510453
DA:258,1021146
DA:260,510693
DA:262,510453
DA:265,1152731
DA:267,1152731
DA:277,2656986
DA:278,2656986
DA:280,2656986
DA:282,2656986
DA:284,2656986
DA:287,229170
DA:289,229170
DA:292,2656986
DA:294,2656986
DA:298,2656986
DA:299,2656986
DA:301,2656986
DA:310,523045
DA:312,523045
DA:315,968775
DA:317,968775
DA:324,3837504
DA:327,3837504
DA:328,3837504
DA:329,3837504
DA:331,3837504
DA:336,3837504
DA:338,3837504
DA:340,3091594
DA:343,745910
DA:345,4475460
DA:346,745910
DA:349,745910
DA:350,745910
DA:351,745910
DA:352,1491820
DA:369,3712
DA:371,3712
DA:372,3712
DA:373,3712
DA:376,4
DA:379,4
DA:380,4
DA:387,4
DA:391,4
DA:392,8
DA:395,3716
DA:397,3716
DA:400,3716
DA:401,3716
DA:402,3716
DA:403,3716
DA:404,3716
DA:405,3716
DA:406,3716
DA:411,3716
DA:412,3716
DA:416,3716
DA:418,240
DA:419,240
DA:424,3716
DA:426,4
DA:429,3712
DA:435,3712
DA:436,3712
DA:440,3712
DA:446,3712
DA:449,3712
DA:451,3712
DA:456,3712
DA:457,3712
DA:458,3712
DA:459,3712
DA:460,3712
DA:462,3712
DA:463,3712
DA:465,3712
DA:466,3712
DA:508,3712
DA:509,3712
DA:510,3712
DA:511,3712
DA:513,3712
DA:514,3712
DA:515,3712
DA:518,3712
DA:520,6497
DA:521,6497
DA:522,3712
DA:524,2785
DA:525,2785
DA:527,3712
DA:529,3712
DA:536,3712
DA:540,3612
DA:541,3612
DA:542,3612
DA:543,3612
DA:546,3712
DA:547,3712
DA:548,3712
DA:550,3712
DA:552,3712
DA:553,11136
DA:555,3712
DA:556,3712
DA:557,3712
DA:559,3712
DA:560,11136
DA:562,3712
DA:563,3712
DA:564,3712
DA:565,3732
DA:567,7224
DA:569,3612
DA:570,7224
DA:572,6820
DA:574,6820
DA:575,6820
DA:576,6820
DA:577,6820
DA:579,6820
DA:581,3712
DA:583,3712
DA:588,3712
DA:591,6820
DA:594,3208
DA:596,3208
DA:600,3208
DA:603,2272484
DA:610,2272484
DA:612,1131756
DA:614,2272484
DA:615,2272484
DA:616,2272484
DA:617,2272484
DA:619,2272484
DA:621,1139635
DA:622,1139635
DA:623,1139635
DA:624,1139635
DA:625,1139635
DA:626,510004
DA:628,1132849
DA:630,1093
DA:631,1093
DA:632,1093
DA:634,588
DA:636,1093
DA:637,1093
DA:638,1093
DA:639,425
DA:643,1131756
DA:644,1131756
DA:647,12
DA:650,12
DA:659,1131760
DA:660,1131760
DA:664,1131760
DA:666,1131760
DA:667,1131760
DA:670,1131760
DA:673,1131760
DA:674,1131760
DA:675,1131760
DA:677,621325
DA:679,621325
DA:680,621325
DA:683,510435
DA:685,510435
DA:686,510435
DA:688,1140712
DA:691,1140712
DA:692,1140712
DA:694,1140712
DA:696,630289
DA:699,510423
DA:700,510423
DA:703,1140727
DA:705,1140727
DA:708,1140728
DA:710,1140728
DA:711,1140728
DA:712,1140728
DA:714,3413211
DA:716,3413211
DA:718,3413211
DA:720,1140727
DA:723,1140727
DA:726,3413211
DA:730,548035
DA:735,26996
DA:737,548035
DA:739,548035
DA:741,3095603
DA:743,2569070
DA:745,2569070
DA:747,21502
DA:748,21502
DA:752,1074568
DA:753,526533
DA:755,521039
DA:756,521039
DA:757,521039
DA:758,521039
DA:759,521039
DA:760,521039
DA:765,26996
DA:766,26996
DA:767,26996
DA:768,26996
DA:771,807
DA:774,807
DA:781,27787
DA:782,27787
DA:784,27787
DA:786,27787
DA:787,27787
DA:788,27787
DA:791,27787
DA:794,27787
DA:795,27787
DA:796,27787
DA:797,27787
DA:799,21500
DA:801,21500
DA:802,21500
DA:805,6287
DA:807,6287
DA:808,6287
DA:810,519441
DA:813,519441
DA:814,519441
DA:815,519441
DA:817,513961
DA:820,5480
DA:821,5480
DA:825,54
DA:830,54
DA:831,54
DA:833,54
DA:835,4
DA:836,4
DA:840,50
DA:843,54
DA:844,54
DA:847,21006
DA:853,20972
DA:855,21006
DA:856,21006
DA:858,21006
DA:860,21040
DA:862,21006
DA:864,21006
DA:866,20972
DA:867,20972
DA:871,21040
DA:872,34
DA:874,34
DA:875,34
DA:876,34
DA:877,34
DA:878,34
DA:879,9
DA:883,20972
DA:884,20972
DA:885,20972
DA:886,20972
DA:889,11
DA:892,22
DA:893,33
DA:902,20971
DA:904,20971
DA:909,20971
DA:911,20971
DA:912,20971
DA:913,20971
DA:916,20971
DA:919,41942
DA:920,41942
DA:921,20971
DA:922,20971
DA:924,20953
DA:926,20953
DA:927,20953
DA:933,18
DA:936,18
DA:937,18
DA:939,11
DA:941,11
DA:942,11
DA:944,24
DA:946,24
DA:948,24
DA:949,24
DA:950,24
DA:952,17
DA:955,7
DA:956,7
DA:959,76
DA:961,76
DA:962,76
DA:964,76
DA:966,140
DA:967,116
DA:968,40
DA:970,20
DA:971,40
DA:974,76
DA:978,3177243
DA:983,3177243
DA:985,2656176
DA:987,3177231
DA:989,521055
DA:995,2656188
DA:998,569061
DA:1000,569061
DA:1001,569061
DA:1002,569061
DA:1004,521067
DA:1008,521067
DA:1010,12
DA:1011,12
DA:1012,12
DA:1015,521055
DA:1016,521055
DA:1017,521055
DA:1020,810
DA:1023,810
DA:1024,810
DA:1031,2656986
DA:1034,2656986
DA:1037,2656986
DA:1038,2656986
DA:1040,2656986
DA:1043,2656986
DA:1046,2656986
DA:1047,2656986
DA:1048,2656986
DA:1050,2427816
DA:1052,2427816
DA:1053,2427816
DA:1059,229170
DA:1065,229170
DA:1066,229170
DA:1068,810
DA:1071,810
DA:1072,810
DA:1073,810
DA:1075,519447
DA:1078,519447
DA:1080,519447
DA:1081,519447
DA:1083,291087
DA:1086,228360
DA:1087,228360
DA:1090,12
DA:1092,12
DA:1095,197
DA:1097,197
DA:1100,197
DA:1102,197
DA:1105,1556
DA:1107,1556
DA:1110,197
DA:1112,197
DA:1115,1140796
DA:1117,1140796
DA:1120,72
DA:1122,72
DA:1125,520319
DA:1127,520319
DA:1130,520319
DA:1132,520319
DA:1135,64
DA:1137,64
DA:1140,505
DA:1143,505
DA:1144,505
DA:1145,253
DA:1147,505
DA:1149,505
DA:1151,505
DA:1152,505
DA:1153,505
DA:1154,505
DA:1155,505
DA:1156,505
DA:1157,505
DA:1158,505
DA:1159,505
DA:1160,505
DA:1161,505
DA:1162,505
DA:1163,505
DA:1164,505
DA:1165,505
DA:1168,505
DA:1169,505
DA:1170,505
DA:1171,505
DA:1172,505
DA:1173,505
DA:1174,505
DA:1175,505
DA:1176,505
DA:1177,505
DA:1180,505
DA:1183,505
DA:1185,505
DA:1188,758
LF:449
LH:449
end_of_record
TN:
SF:lib/disruptor.js
FN:4,check
FN:14,(anonymous_1)
FN:18,(anonymous_2)
FN:19,(anonymous_3)
FN:24,(anonymous_4)
FN:25,(anonymous_5)
FN:30,(anonymous_6)
FN:31,(anonymous_7)
FN:36,(anonymous_8)
FN:44,(anonymous_9)
FN:51,(anonymous_10)
FN:61,(anonymous_11)
FN:69,(anonymous_12)
FN:79,(anonymous_13)
FN:87,(anonymous_14)
FN:97,(anonymous_15)
FN:107,(anonymous_16)
FNDA:519447,(anonymous_15)
FNDA:11,(anonymous_7)
FNDA:467553,(anonymous_5)
FNDA:1140712,(anonymous_10)
FNDA:519447,(anonymous_16)
FNDA:11,(anonymous_6)
FNDA:24,(anonymous_14)
FNDA:1140712,(anonymous_9)
FNDA:519441,(anonymous_12)
FNDA:3716,(anonymous_1)
FNDA:24,(anonymous_13)
FNDA:467553,(anonymous_4)
FNDA:439343,(anonymous_2)
FNDA:439343,(anonymous_3)
FNDA:467556,(anonymous_8)
FNDA:2179624,check
FNDA:519441,(anonymous_11)
FNF:17
FNH:17
BRDA:6,0,0,1435354
BRDA:6,0,1,744270
BRDA:37,1,0,2
BRDA:37,1,1,467554
BRDA:53,2,0,701369
BRDA:53,2,1,439343
BRDA:71,3,0,51888
BRDA:71,3,1,467553
BRDA:89,4,0,13
BRDA:89,4,1,11
BRDA:99,5,0,8
BRDA:99,5,1,519439
BRDA:109,6,0,8
BRDA:109,6,1,519439
BRDA:111,7,0,6
BRDA:111,7,1,2
BRDA:119,8,0,51885
BRDA:119,8,1,467554
BRF:18
BRH:18
DA:1,505
DA:2,505
DA:6,2179624
DA:8,1435354
DA:16,3716
DA:18,3712
DA:19,439343
DA:20,439343
DA:24,3712
DA:25,467553
DA:26,467553
DA:30,3712
DA:31,11
DA:32,11
DA:36,3712
DA:37,467556
DA:38,2
DA:40,467554
DA:46,1140712
DA:53,1140712
DA:55,701369
DA:58,439343
DA:63,519441
DA:71,519441
DA:73,51888
DA:76,467553
DA:81,24
DA:89,24
DA:91,13
DA:94,11
DA:99,519447
DA:101,8
DA:104,519439
DA:109,519447
DA:111,8
DA:113,6
DA:116,2
DA:119,519439
DA:121,51885
DA:124,467554
DA:128,505
LF:41
LH:41
end_of_record
